(dp0
S'nooooo'
p1
S'no'
p2
sS'todays'
p3
S"today's"
p4
sS'msgs'
p5
S'messages'
p6
sS'nws'
p7
S'news'
p8
sS'amzing'
p9
S'amazing'
p10
sS'responceble'
p11
S'responsible'
p12
sS'hati'
p13
S'hate'
p14
sS'betch'
p15
S'bitch'
p16
sS'noooooooooo'
p17
S'no'
p18
sS'changng'
p19
S'changing'
p20
sS'waht'
p21
S'what'
p22
sS'dere'
p23
S'there'
p24
sS'rentin'
p25
S'renting'
p26
sS'talkn'
p27
S'talking'
p28
sS'drinkin'
p29
S'drinking'
p30
sS'hunnaaay'
p31
S'honey'
p32
sS'rding'
p33
S'reading'
p34
sS'allll'
p35
S'all'
p36
sS'auf'
p37
S'of'
p38
sS'sorri'
p39
S'sorry'
p40
sS"dat's"
p41
S"that's"
p42
sS'saddd'
p43
S'sad'
p44
sS'spen'
p45
S'spend'
p46
sS'iits'
p47
S'its'
p48
sS'mwa'
p49
S'kiss'
p50
sS'parisdise'
p51
S'paradise'
p52
sS'nonexistant'
p53
S'nonexistent'
p54
sS'appisode'
p55
S'episode'
p56
sS'callin'
p57
S'calling'
p58
sS'suuuuuuuunnnn'
p59
S'sun'
p60
sS'4evaa'
p61
S'forever'
p62
sS'aroun'
p63
S'around'
p64
sS'neue'
p65
S'new'
p66
sS'partyy'
p67
S'party'
p68
sS'disinfo'
p69
S'disinformation'
p70
sS'lotsss'
p71
S'lots'
p72
sS'neway'
p73
S'anyway'
p74
sS'retweetin'
p75
S'retweeting'
p76
sS'linkin'
p77
S'linking'
p78
sS'crackin'
p79
S'cracking'
p80
sS'todayy'
p81
S'today'
p82
sS'chrismas'
p83
S'christmas'
p84
sS'betterr'
p85
S'better'
p86
sS'poundin'
p87
S'pounding'
p88
sS'butttttt'
p89
S'but'
p90
sS'everr'
p91
S'ever'
p92
sS'shytt'
p93
S'shit'
p94
sS'skillz'
p95
S'skills'
p96
sS'commision'
p97
S'commission'
p98
sS'whitman'
p99
S'whiteman'
p100
sS'cme'
p101
S'come'
p102
sS'servin'
p103
S'serving'
p104
sS'aqain'
p105
S'again'
p106
sS'greaaaat'
p107
S'great'
p108
sS'killlllllllll'
p109
S'kill'
p110
sS'oooh'
p111
S'oh'
p112
sS'cmt'
p113
S'comment'
p114
sS'transportttt'
p115
S'transport'
p116
sS'upp'
p117
S'up'
p118
sS'chev'
p119
S'chevy'
p120
sS'mln'
p121
S'million'
p122
sS'performin'
p123
S'performing'
p124
sS'moscato'
p125
S'mosquito'
p126
sS'chek'
p127
S'check'
p128
sS'phonee'
p129
S'phone'
p130
sS'wantd'
p131
S'wanted'
p132
sS'muey'
p133
S'my'
p134
sS'kuz'
p135
S'because'
p136
sS'anddd'
p137
S'and'
p138
sS'pts'
p139
S'points'
p140
sS'neb'
p141
S'web'
p142
sS'satified'
p143
S'satisfied'
p144
sS'ringin'
p145
S'ringing'
p146
sS'kum'
p147
S'come'
p148
sS'fallow'
p149
S'follow'
p150
sS'fugg'
p151
S'fuck'
p152
sS'pinapple'
p153
S'pineapple'
p154
sS"carn't"
p155
S"can't"
p156
sS'groupie'
p157
S'group'
p158
sS'fcuk'
p159
S'fuck'
p160
sS'jobbies'
p161
S'hobbies'
p162
sS'contine'
p163
S'continue'
p164
sS'remem'
p165
S'remember'
p166
sS'guysss'
p167
S'guys'
p168
sS'rainha'
p169
S'rain'
p170
sS'brutha'
p171
S'brother'
p172
sS'dres'
p173
S'dress'
p174
sS'pleasue'
p175
S'pleasure'
p176
sS'meh'
p177
S'me'
p178
sS'naww'
p179
S'no'
p180
sS'undef'
p181
S'under'
p182
sS'eading'
p183
S'heading'
p184
sS'smokin'
p185
S'smoking'
p186
sS'mummers'
p187
S'summers'
p188
sS'const'
p189
S'constitution'
p190
sS'purchassing'
p191
S'purchasing'
p192
sS'therfore'
p193
S'therefore'
p194
sS'sooooooooooo'
p195
S'so'
p196
sS'daht'
p197
S'that'
p198
sS'moooreee'
p199
S'more'
p200
sS"i'v"
p201
S"i've"
p202
sS'sweeet'
p203
S'sweet'
p204
sS'k'
p205
S'ok'
p206
sS'promocion'
p207
S'promotion'
p208
sS'drt'
p209
S'dirt'
p210
sS'restt'
p211
S'rest'
p212
sS'dri'
p213
S'dried'
p214
sS'tiredd'
p215
S'tired'
p216
sS'drm'
p217
S'dream'
p218
sS'lingo'
p219
S'language'
p220
sS'allready'
p221
S'already'
p222
sS'jamm'
p223
S'jam'
p224
sS'pullin'
p225
S'pulling'
p226
sS'studo'
p227
S'studio'
p228
sS'errybody'
p229
S'everybody'
p230
sS'reste'
p231
S'rest'
p232
sS'guud'
p233
S'good'
p234
sS"sr's"
p235
S'serious'
p236
sS'trrrrry'
p237
S'try'
p238
sS'foreeeeever'
p239
S'forever'
p240
sS'instrumen'
p241
S'instrument'
p242
sS'bro'
p243
S'brother'
p244
sS'carb'
p245
S'carbohydrates'
p246
sS'moviie'
p247
S'movie'
p248
sS'havent'
p249
S"haven't"
p250
sS'maake'
p251
S'make'
p252
sS'offf'
p253
S'off'
p254
sS'bre'
p255
S'bare'
p256
sS'txt'
p257
S'text'
p258
sS'univ'
p259
S'university'
p260
sS'dne'
p261
S'done'
p262
sS'dnd'
p263
S'and'
p264
sS'dng'
p265
S'doing'
p266
sS'conv'
p267
S'conversion'
p268
sS'musiq'
p269
S'music'
p270
sS'hubbie'
p271
S'husband'
p272
sS'scrn'
p273
S'screen'
p274
sS'maen'
p275
S'main'
p276
sS'dnt'
p277
S"don't"
p278
sS'slippiinqq'
p279
S'slipping'
p280
sS'sayn'
p281
S'saying'
p282
sS'yuhh'
p283
S'you'
p284
sS'calc'
p285
S'calculus'
p286
sS'musik'
p287
S'music'
p288
sS'catchn'
p289
S'catching'
p290
sS'ir'
p291
S'air'
p292
sS'sammich'
p293
S'sandwich'
p294
sS'kidddddd'
p295
S'kid'
p296
sS'hurr'
p297
S'hair'
p298
sS'relat'
p299
S'related'
p300
sS'hols'
p301
S'holidays'
p302
sS'femalez'
p303
S'females'
p304
sS'spazz'
p305
S'space'
p306
sS'whaaaatttttt'
p307
S'what'
p308
sS'biatch'
p309
S'bitch'
p310
sS'dangerus'
p311
S'dangerous'
p312
sS'excl'
p313
S'excellence'
p314
sS'listenin'
p315
S'listening'
p316
sS'talez'
p317
S'tales'
p318
sS'bklyn'
p319
S'brooklyn'
p320
sS'ma'
p321
S'my'
p322
sS'routi'
p323
S'routine'
p324
sS'moviee'
p325
S'movie'
p326
sS'mo'
p327
S'more'
p328
sS'thinq'
p329
S'thing'
p330
sS'mi'
p331
S'my'
p332
sS'ery'
p333
S'early'
p334
sS'mk'
p335
S'make'
p336
sS'mu'
p337
S'my'
p338
sS'qood'
p339
S'good'
p340
sS'mv'
p341
S'movie'
p342
sS'shool'
p343
S'school'
p344
sS'thiis'
p345
S'this'
p346
sS'evrything'
p347
S'everything'
p348
sS'5top'
p349
S'stop'
p350
sS'mz'
p351
S'ms'
p352
sS'goood'
p353
S'good'
p354
sS'involvs'
p355
S'involves'
p356
sS'partys'
p357
S'parties'
p358
sS'enemiesss'
p359
S'enemies'
p360
sS'novio'
p361
S'naive'
p362
sS'goooo'
p363
S'go'
p364
sS'embarressing'
p365
S'embarrassing'
p366
sS'homie'
p367
S'home'
p368
sS'smth'
p369
S'something'
p370
sS'veggies'
p371
S'vegetables'
p372
sS'mejor'
p373
S'major'
p374
sS'uaa'
p375
S'your'
p376
sS'wnted'
p377
S'wanted'
p378
sS'grrreat'
p379
S'great'
p380
sS'str8'
p381
S'straight'
p382
sS'nutz'
p383
S'nuts'
p384
sS'yuh'
p385
S'you'
p386
sS'franzy'
p387
S'frenzy'
p388
sS'hol'
p389
S'holiday'
p390
sS'charginv'
p391
S'charging'
p392
sS'beeean'
p393
S'been'
p394
sS'iiii'
p395
S'i'
p396
sS'nutn'
p397
S'nothing'
p398
sS'shakin'
p399
S'shaking'
p400
sS'hou'
p401
S'houston'
p402
sS'hor'
p403
S'horror'
p404
sS'hos'
p405
S'has'
p406
sS'env'
p407
S'environment'
p408
sS'buzzin'
p409
S'buzzing'
p410
sS'mornig'
p411
S'morning'
p412
sS'thinkin'
p413
S'thinking'
p414
sS'ovr'
p415
S'over'
p416
sS'cosign'
p417
S'consign'
p418
sS'othrs'
p419
S'others'
p420
sS'bday'
p421
S'birthday'
p422
sS'harrrd'
p423
S'hard'
p424
sS'laf'
p425
S'laugh'
p426
sS'vegass'
p427
S'vegas'
p428
sS'whyyyy'
p429
S'why'
p430
sS'befor'
p431
S'before'
p432
sS'ova'
p433
S'over'
p434
sS'tropic'
p435
S'topic'
p436
sS'sumbodi'
p437
S'somebody'
p438
sS'dumbb'
p439
S'dumb'
p440
sS'closin'
p441
S'closing'
p442
sS'toether'
p443
S'together'
p444
sS'baqkk'
p445
S'back'
p446
sS'sonq'
p447
S'song'
p448
sS'chillen'
p449
S'chilling'
p450
sS'thks'
p451
S'thanks'
p452
sS'noooo'
p453
S'no'
p454
sS'wknd'
p455
S'weekend'
p456
sS'politik'
p457
S'politic'
p458
sS'fukcking'
p459
S'fucking'
p460
sS'receiv'
p461
S'receive'
p462
sS'buggin'
p463
S'bugging'
p464
sS'pract'
p465
S'practically'
p466
sS'wots'
p467
S"what's"
p468
sS'quiting'
p469
S'quitting'
p470
sS"exper'd"
p471
S'experienced'
p472
sS'yett'
p473
S'yet'
p474
sS'wus'
p475
S'was'
p476
sS'jelous'
p477
S'jealous'
p478
sS'noobody'
p479
S'nobody'
p480
sS'wut'
p481
S'what'
p482
sS'welcomee'
p483
S'welcome'
p484
sS'geekout'
p485
S'jacket'
p486
sS'decc'
p487
S'deck'
p488
sS'pressie'
p489
S'present'
p490
sS'niiiiice'
p491
S'nice'
p492
sS'onn'
p493
S'on'
p494
sS'pikk'
p495
S'pick'
p496
sS'rehersal'
p497
S'rehearsal'
p498
sS'sesh'
p499
S'session'
p500
sS'apperciates'
p501
S'appreciates'
p502
sS'hapy'
p503
S'happy'
p504
sS'cld'
p505
S'could'
p506
sS'goooodd'
p507
S'good'
p508
sS'agreeeeeeeeee'
p509
S'agree'
p510
sS'fic'
p511
S'fix'
p512
sS'personas'
p513
S'persons'
p514
sS'fik'
p515
S'fix'
p516
sS'reretweet'
p517
S'retweet'
p518
sS'fulgar'
p519
S'vulgar'
p520
sS'easies'
p521
S'easier'
p522
sS'vegeterian'
p523
S'vegetarian'
p524
sS'tapons'
p525
S'tampons'
p526
sS'jerkinn'
p527
S'jerking'
p528
sS'yeeah'
p529
S'yeah'
p530
sS'foolio'
p531
S'fool'
p532
sS'duvet'
p533
S'duet'
p534
sS"sit'n"
p535
S'sitting'
p536
sS'boutt'
p537
S'about'
p538
sS'prortion'
p539
S'portion'
p540
sS'twits'
p541
S'tweets'
p542
sS'collabs'
p543
S'collaborations'
p544
sS'twitterin'
p545
S'twittering'
p546
sS'downn'
p547
S'down'
p548
sS'thet'
p549
S'that'
p550
sS'ther'
p551
S'there'
p552
sS'heyyyy'
p553
S'hey'
p554
sS'thenn'
p555
S'then'
p556
sS'sumbody'
p557
S'somebody'
p558
sS'aparrt'
p559
S'apart'
p560
sS'readyy'
p561
S'ready'
p562
sS'holdin'
p563
S'holding'
p564
sS'protectin'
p565
S'protection'
p566
sS'sumthing'
p567
S'something'
p568
sS'luci'
p569
S'luck'
p570
sS'cumn'
p571
S'coming'
p572
sS'onley'
p573
S'only'
p574
sS'cuffin'
p575
S'cuffing'
p576
sS'dout'
p577
S'doubt'
p578
sS'twitterrrrr'
p579
S'twitter'
p580
sS'mdm'
p581
S'medium'
p582
sS't2'
p583
S'to'
p584
sS'turnin'
p585
S'turning'
p586
sS'journ'
p587
S'journal'
p588
sS'preachn'
p589
S'preach'
p590
sS'crawlin'
p591
S'crawling'
p592
sS'pissd'
p593
S'pissed'
p594
sS'kompatible'
p595
S'compatible'
p596
sS'hershys'
p597
S"hershey's"
p598
sS'wiith'
p599
S'with'
p600
sS'2day'
p601
S'today'
p602
sS'distric'
p603
S'district'
p604
sS'wordddd'
p605
S'word'
p606
sS'cums'
p607
S'comes'
p608
sS'gom'
p609
S'go'
p610
sS'goo'
p611
S'go'
p612
sS'gon'
p613
S'going'
p614
sS'tshir'
p615
S't-shirt'
p616
sS'meltdo'
p617
S'melt'
p618
sS'princpls'
p619
S'principals'
p620
sS'semua'
p621
S'sum'
p622
sS'rd'
p623
S'road'
p624
sS're'
p625
S'regarding'
p626
sS'matan'
p627
S'matter'
p628
sS'noice'
p629
S'nice'
p630
sS'nite'
p631
S'night'
p632
sS'dovada'
p633
S'dived'
p634
sS'gnrations'
p635
S'generations'
p636
sS'rm'
p637
S'room'
p638
sS'sme'
p639
S'some'
p640
sS'gov'
p641
S'government'
p642
sS'so0o0'
p643
S'so'
p644
sS'cheatin'
p645
S'cheating'
p646
sS'eyeeeessss'
p647
S'eyes'
p648
sS'fren'
p649
S'friend'
p650
sS'2daii'
p651
S'today'
p652
sS'fave'
p653
S'favorite'
p654
sS'bldg'
p655
S'building'
p656
sS'pw'
p657
S'password'
p658
sS'ordring'
p659
S'ordering'
p660
sS'favs'
p661
S'favorites'
p662
sS'stomatch'
p663
S'stomach'
p664
sS'theif'
p665
S'thief'
p666
sS'whattt'
p667
S'what'
p668
sS'isz'
p669
S'is'
p670
sS'liil'
p671
S'little'
p672
sS'dayz'
p673
S'days'
p674
sS'dayum'
p675
S'damn'
p676
sS'dayy'
p677
S'day'
p678
sS'iss'
p679
S'is'
p680
sS'arr0w'
p681
S'arrow'
p682
sS'forevaa'
p683
S'forever'
p684
sS'eargent'
p685
S'urgent'
p686
sS'att'
p687
S'act'
p688
sS'starti'
p689
S'start'
p690
sS'eatting'
p691
S'eating'
p692
sS'shootin'
p693
S'shooting'
p694
sS'fuckked'
p695
S'fucked'
p696
sS'fuckin'
p697
S'fucking'
p698
sS'nothn'
p699
S'nothing'
p700
sS'laggy'
p701
S'lagging'
p702
sS'classiccc'
p703
S'classic'
p704
sS'lifeee'
p705
S'life'
p706
sS'wass'
p707
S'was'
p708
sS'hoow'
p709
S'how'
p710
sS"ma'am"
p711
S'madam'
p712
sS'tweetheart'
p713
S'sweetheart'
p714
sS'comin'
p715
S'coming'
p716
sS'gradu'
p717
S'graduate'
p718
sS'ballin'
p719
S'balling'
p720
sS'playa'
p721
S'play'
p722
sS'reppin'
p723
S'repping'
p724
sS'girlz'
p725
S'girls'
p726
sS'girly'
p727
S'girls'
p728
sS'wantin'
p729
S'wanting'
p730
sS'whennn'
p731
S'when'
p732
sS'rong'
p733
S'wrong'
p734
sS'lotttt'
p735
S'lot'
p736
sS'registation'
p737
S'registration'
p738
sS'jarule'
p739
S'girl'
p740
sS'sumbdy'
p741
S'somebody'
p742
sS'girll'
p743
S'girl'
p744
sS'dudeeee'
p745
S'dude'
p746
sS'knoooo'
p747
S'know'
p748
sS'rockin'
p749
S'rocking'
p750
sS'kewl'
p751
S'cool'
p752
sS"dt's"
p753
S"digital's"
p754
sS"int'l"
p755
S'international'
p756
sS'girla'
p757
S'girls'
p758
sS'singin'
p759
S'singing'
p760
sS'noch'
p761
S'notch'
p762
sS'kno'
p763
S'know'
p764
sS'tooo'
p765
S'too'
p766
sS'looong'
p767
S'long'
p768
sS'soemething'
p769
S'something'
p770
sS'tmob'
p771
S'tomb'
p772
sS'tlking'
p773
S'talking'
p774
sS'digi'
p775
S'digital'
p776
sS'bringin'
p777
S'bringing'
p778
sS'nahh'
p779
S'no'
p780
sS'dyinnnn'
p781
S'dying'
p782
sS'somone'
p783
S'someone'
p784
sS'exchage'
p785
S'exchange'
p786
sS'minum'
p787
S'minimum'
p788
sS'dealin'
p789
S'dealing'
p790
sS'expr'
p791
S'experience'
p792
sS'thx'
p793
S'thanks'
p794
sS'durin'
p795
S'during'
p796
sS'feelins'
p797
S'feelings'
p798
sS'merch'
p799
S'merchandise'
p800
sS'slackin'
p801
S'slacking'
p802
sS'urthe'
p803
S'worth'
p804
sS'developping'
p805
S'developing'
p806
sS'laterr'
p807
S'later'
p808
sS'follloww'
p809
S'follow'
p810
sS'komin'
p811
S'coming'
p812
sS'gutar'
p813
S'guitar'
p814
sS'encouragin'
p815
S'encouraging'
p816
sS'rad'
p817
S'red'
p818
sS'oohhh'
p819
S'oh'
p820
sS'fcking'
p821
S'fucking'
p822
sS'talkinq'
p823
S'talking'
p824
sS'thr'
p825
S'there'
p826
sS'groooss'
p827
S'gross'
p828
sS"f'n"
p829
S'fucking'
p830
sS'plzz'
p831
S'please'
p832
sS'plzx'
p833
S'please'
p834
sS'girtle'
p835
S'girdle'
p836
sS'ohhhh'
p837
S'oh'
p838
sS'fukkin'
p839
S'fucking'
p840
sS'longg'
p841
S'long'
p842
sS'minu'
p843
S'minutes'
p844
sS'reali'
p845
S'really'
p846
sS'tes'
p847
S'tesco'
p848
sS'fineeeee'
p849
S'fine'
p850
sS'tomorro'
p851
S'tomorrow'
p852
sS'ingressos'
p853
S'increases'
p854
sS'droppin'
p855
S'dropping'
p856
sS'deres'
p857
S"there's"
p858
sS'fixin'
p859
S'fixing'
p860
sS'realy'
p861
S'really'
p862
sS'strilla'
p863
S'still'
p864
sS'spittin'
p865
S'spitting'
p866
sS'thk'
p867
S'think'
p868
sS'tew'
p869
S'to'
p870
sS'hun'
p871
S'honey'
p872
sS'tym'
p873
S'time'
p874
sS'shizz'
p875
S'shit'
p876
sS'doin'
p877
S'doing'
p878
sS'answrs'
p879
S'answers'
p880
sS'shyt'
p881
S'shit'
p882
sS'rsa'
p883
S'russia'
p884
sS'welll'
p885
S'well'
p886
sS'madde'
p887
S'made'
p888
sS'maddd'
p889
S'mad'
p890
sS'odas'
p891
S'others'
p892
sS'daaaay'
p893
S'day'
p894
sS"u'r"
p895
S'your'
p896
sS'peopleeeee'
p897
S'people'
p898
sS'whas'
p899
S'was'
p900
sS'friendas'
p901
S'friends'
p902
sS'don'
p903
S"don't"
p904
sS'doo'
p905
S'do'
p906
sS'hungrryyy'
p907
S'hungry'
p908
sS'cams'
p909
S'cameras'
p910
sS'doc'
p911
S'doctor'
p912
sS'mixx'
p913
S'mix'
p914
sS'm'
p915
S'am'
p916
sS'qoin'
p917
S'going'
p918
sS'gooing'
p919
S'going'
p920
sS'tha'
p921
S'the'
p922
sS'prncpls'
p923
S'principals'
p924
sS'yessssssss'
p925
S'yes'
p926
sS'spendin'
p927
S'spending'
p928
sS'guyss'
p929
S'guys'
p930
sS'areaaaaaaa'
p931
S'area'
p932
sS'collaboraters'
p933
S'collaborators'
p934
sS'behavin'
p935
S'behaving'
p936
sS'copt'
p937
S'cooperation'
p938
sS'yeh'
p939
S'yes'
p940
sS'butt'
p941
S'but'
p942
sS'okayyyyyy'
p943
S'okay'
p944
sS'shirtss'
p945
S'shirts'
p946
sS'emptyy'
p947
S'empty'
p948
sS'eeeeven'
p949
S'even'
p950
sS'baack'
p951
S'back'
p952
sS'greatttt'
p953
S'great'
p954
sS'baik'
p955
S'back'
p956
sS'godddd'
p957
S'god'
p958
sS'probs'
p959
S'probably'
p960
sS'wahm'
p961
S'warm'
p962
sS'whyyy'
p963
S'why'
p964
sS'hurdd'
p965
S'hard'
p966
sS'mpire'
p967
S'empire'
p968
sS'lazing'
p969
S'laying'
p970
sS'feeel'
p971
S'feel'
p972
sS'ment'
p973
S'meant'
p974
sS'buss'
p975
S'bus'
p976
sS'lockerz'
p977
S'lockers'
p978
sS'hrs'
p979
S'hours'
p980
sS'tomrrow'
p981
S'tomorrow'
p982
sS'wsnt'
p983
S"wasn't"
p984
sS'lubb'
p985
S'love'
p986
sS'hrd'
p987
S'hard'
p988
sS'themm'
p989
S'them'
p990
sS'dousche'
p991
S'duchy'
p992
sS'dn'
p993
S'do'
p994
sS'geez'
p995
S'jesus'
p996
sS'dl'
p997
S'download'
p998
sS'twttr'
p999
S'twitter'
p1000
sS'steem'
p1001
S'steam'
p1002
sS'busyy'
p1003
S'busy'
p1004
sS'inflateable'
p1005
S'inflatable'
p1006
sS'whaa'
p1007
S'what'
p1008
sS'stor'
p1009
S'store'
p1010
sS'geet'
p1011
S'get'
p1012
sS'tis'
p1013
S'this'
p1014
sS'aand'
p1015
S'and'
p1016
sS'sphread'
p1017
S'spread'
p1018
sS'beleive'
p1019
S'believe'
p1020
sS'chanel'
p1021
S'channel'
p1022
sS'agyyyy'
p1023
S'ago'
p1024
sS'chiilin'
p1025
S'chilling'
p1026
sS'qtr'
p1027
S'quarter'
p1028
sS'scranned'
p1029
S'scanned'
p1030
sS'baq'
p1031
S'back'
p1032
sS'tks'
p1033
S'thanks'
p1034
sS'ner'
p1035
S'her'
p1036
sS'emo'
p1037
S'emotional'
p1038
sS'nes'
p1039
S'necessary'
p1040
sS'babyy'
p1041
S'baby'
p1042
sS'deliverys'
p1043
S'delivers'
p1044
sS'bae'
p1045
S'baby'
p1046
sS'ooohh'
p1047
S'oh'
p1048
sS'bubbelz'
p1049
S'bubbles'
p1050
sS'occurance'
p1051
S'occurrence'
p1052
sS'onnn'
p1053
S'on'
p1054
sS'effing'
p1055
S'fucking'
p1056
sS'mee'
p1057
S'me'
p1058
sS'meanie'
p1059
S'mean'
p1060
sS'yooooooou'
p1061
S'you'
p1062
sS'beso'
p1063
S'best'
p1064
sS'helll'
p1065
S'hell'
p1066
sS'witout'
p1067
S'without'
p1068
sS'prety'
p1069
S'pretty'
p1070
sS"ur's"
p1071
S"your's"
p1072
sS'inny'
p1073
S'inn'
p1074
sS'transferred'
p1075
S'transfered'
p1076
sS'nun'
p1077
S'nothing'
p1078
sS'btch'
p1079
S'bitch'
p1080
sS'coookies'
p1081
S'cookies'
p1082
sS'wopper'
p1083
S'whopper'
p1084
sS'nuh'
p1085
S'no'
p1086
sS'notebk'
p1087
S'notebook'
p1088
sS'smileeee'
p1089
S'smile'
p1090
sS'nua'
p1091
S'go'
p1092
sS'yer'
p1093
S'your'
p1094
sS'odeeeee'
p1095
S'ode'
p1096
sS'mus'
p1097
S'must'
p1098
sS'whaat'
p1099
S'what'
p1100
sS'sumtimes'
p1101
S'sometimes'
p1102
sS'culd'
p1103
S'could'
p1104
sS'sista'
p1105
S'sister'
p1106
sS'irl'
p1107
S'girl'
p1108
sS'aftanoon'
p1109
S'afternoon'
p1110
sS'2morro'
p1111
S'tomorrow'
p1112
sS'awak'
p1113
S'awake'
p1114
sS'hoootttt'
p1115
S'hot'
p1116
sS'ishh'
p1117
S'shit'
p1118
sS'elsker'
p1119
S'else'
p1120
sS'hous3'
p1121
S'house'
p1122
sS'wd'
p1123
S'would'
p1124
sS'drivin'
p1125
S'driving'
p1126
sS'somewhr'
p1127
S'somewhere'
p1128
sS'pleaze'
p1129
S'please'
p1130
sS'novembre'
p1131
S'november'
p1132
sS'suga'
p1133
S'sugar'
p1134
sS'wl'
p1135
S'will'
p1136
sS'wk'
p1137
S'week'
p1138
sS'mayne'
p1139
S'man'
p1140
sS'wh'
p1141
S'with'
p1142
sS'newz'
p1143
S'news'
p1144
sS'fugly'
p1145
S'ugly'
p1146
sS'wt'
p1147
S'what'
p1148
sS'nahhh'
p1149
S'no'
p1150
sS'wr'
p1151
S'were'
p1152
sS'werk'
p1153
S'work'
p1154
sS'kittyyy'
p1155
S'kitty'
p1156
sS'snappn'
p1157
S'snapping'
p1158
sS'flexin'
p1159
S'flexing'
p1160
sS'neww'
p1161
S'new'
p1162
sS'wx'
p1163
S'we'
p1164
sS'0r'
p1165
S'or'
p1166
sS'bloggin'
p1167
S'blogging'
p1168
sS'cos'
p1169
S'because'
p1170
sS'humilate'
p1171
S'humiliate'
p1172
sS'nursin'
p1173
S'nursing'
p1174
sS'ill'
p1175
S"i'll"
p1176
sS'coz'
p1177
S'because'
p1178
sS'girrrllllsssssss'
p1179
S'girls'
p1180
sS'und'
p1181
S'and'
p1182
sS'gewd'
p1183
S'good'
p1184
sS"havn't"
p1185
S"haven't"
p1186
sS'tomarrow'
p1187
S'tomorrow'
p1188
sS'uni'
p1189
S'university'
p1190
sS'realllyyy'
p1191
S'really'
p1192
sS'brah'
p1193
S'brother'
p1194
sS'0n'
p1195
S'on'
p1196
sS'col'
p1197
S'cold'
p1198
sS'frumm'
p1199
S'from'
p1200
sS'winnin'
p1201
S'winning'
p1202
sS'chickas'
p1203
S'chicks'
p1204
sS'outtss'
p1205
S'outs'
p1206
sS'contributin'
p1207
S'contribution'
p1208
sS'waaay'
p1209
S'way'
p1210
sS'2nd'
p1211
S'second'
p1212
sS'happenin'
p1213
S'happening'
p1214
sS'healz'
p1215
S'heals'
p1216
sS'matta'
p1217
S'matter'
p1218
sS'screamo'
p1219
S'scream'
p1220
sS'yaaa'
p1221
S'you'
p1222
sS'diff'
p1223
S'different'
p1224
sS'truss'
p1225
S'trust'
p1226
sS"prof's"
p1227
S'professor'
p1228
sS'babayy'
p1229
S'baby'
p1230
sS'putt'
p1231
S'put'
p1232
sS'justtt'
p1233
S'just'
p1234
sS'seein'
p1235
S'seeing'
p1236
sS'fre'
p1237
S'free'
p1238
sS'enginer'
p1239
S'engineer'
p1240
sS'belieber'
p1241
S'believer'
p1242
sS'haz'
p1243
S'has'
p1244
sS'frm'
p1245
S'from'
p1246
sS'aske'
p1247
S'ask'
p1248
sS'askd'
p1249
S'asked'
p1250
sS'burin'
p1251
S'burning'
p1252
sS'wuld'
p1253
S'would'
p1254
sS'daays'
p1255
S'days'
p1256
sS'beez'
p1257
S'because'
p1258
sS'okayy'
p1259
S'okay'
p1260
sS'doooo'
p1261
S'do'
p1262
sS'tini'
p1263
S'tiny'
p1264
sS'excitedd'
p1265
S'excited'
p1266
sS'yessssss'
p1267
S'yes'
p1268
sS'recomend'
p1269
S'recommend'
p1270
sS'diffs'
p1271
S'differs'
p1272
sS"follow'n"
p1273
S'following'
p1274
sS'homies'
p1275
S'homes'
p1276
sS'sooooo'
p1277
S'so'
p1278
sS'buyin'
p1279
S'buying'
p1280
sS'chut'
p1281
S'chat'
p1282
sS'chiln'
p1283
S'chilling'
p1284
sS'wakee'
p1285
S'wake'
p1286
sS'definetly'
p1287
S'definitely'
p1288
sS'difft'
p1289
S'different'
p1290
sS'gyal'
p1291
S'girl'
p1292
sS'slp'
p1293
S'sleep'
p1294
sS'n'
p1295
S'and'
p1296
sS'dept'
p1297
S'department'
p1298
sS'meetin'
p1299
S'meeting'
p1300
sS'evefr'
p1301
S'ever'
p1302
sS'gng'
p1303
S'going'
p1304
sS'gne'
p1305
S'gone'
p1306
sS'slf'
p1307
S'self'
p1308
sS'noww'
p1309
S'now'
p1310
sS'kidz'
p1311
S'kids'
p1312
sS'wft'
p1313
S'wet'
p1314
sS'loooove'
p1315
S'love'
p1316
sS'iz'
p1317
S'is'
p1318
sS'cont'
p1319
S'continued'
p1320
sS'smebody'
p1321
S'somebody'
p1322
sS'gh3ad'
p1323
S'guard'
p1324
sS'geekin'
p1325
S'geeking'
p1326
sS'lollypop'
p1327
S'lollipop'
p1328
sS'soundin'
p1329
S'sounding'
p1330
sS'ii'
p1331
g396
sS'expan'
p1332
S'expand'
p1333
sS'geezzzz'
p1334
S'jesus'
p1335
sS'cond'
p1336
S'condition'
p1337
sS'conf'
p1338
S'conference'
p1339
sS'succed'
p1340
S'succeed'
p1341
sS'albainians'
p1342
S'albanians'
p1343
sS'fakee'
p1344
S'fake'
p1345
sS'snorin'
p1346
S'snoring'
p1347
sS'id'
p1348
S"i'd"
p1349
sS'birrrrrrrtttthhhdaaaayyy'
p1350
S'birthday'
p1351
sS'cooool'
p1352
S'cool'
p1353
sS'thingz'
p1354
S'things'
p1355
sS'makn'
p1356
S'making'
p1357
sS'posterous'
p1358
S'posters'
p1359
sS'transfu'
p1360
S'transfer'
p1361
sS'hearded'
p1362
S'heard'
p1363
sS'yor'
p1364
S'you'
p1365
sS'dhe'
p1366
S'the'
p1367
sS'ops'
p1368
S'operations'
p1369
sS'th3'
p1370
S'there'
p1371
sS'dha'
p1372
S'the'
p1373
sS'intresting'
p1374
S'interesting'
p1375
sS'millio'
p1376
S'million'
p1377
sS'yahooo'
p1378
S'yahoo'
p1379
sS'ohhhhh'
p1380
S'oh'
p1381
sS'chilin'
p1382
S'chilling'
p1383
sS'puttin'
p1384
S'putting'
p1385
sS'reffering'
p1386
S'referring'
p1387
sS'unforgetable'
p1388
S'unforgettable'
p1389
sS'aircell'
p1390
S"aircell's"
p1391
sS'mii'
p1392
S'my'
p1393
sS'evry1'
p1394
S'everyone'
p1395
sS'alked'
p1396
S'asked'
p1397
sS'jkt'
p1398
S'jacket'
p1399
sS'dennys'
p1400
S"denny's"
p1401
sS'managment'
p1402
S'management'
p1403
sS'ddnt'
p1404
S"didn't"
p1405
sS'saidd'
p1406
S'said'
p1407
sS'knockrd'
p1408
S'knocked'
p1409
sS'ciggys'
p1410
S'cigarettes'
p1411
sS'fridayy'
p1412
S'friday'
p1413
sS'hanq'
p1414
S'hang'
p1415
sS'lovin'
p1416
S'loving'
p1417
sS'overr'
p1418
S'over'
p1419
sS'grrrls'
p1420
S'girls'
p1421
sS"the're"
p1422
S"they're"
p1423
sS'tryn'
p1424
S'trying'
p1425
sS'thy'
p1426
S'they'
p1427
sS'lissenin'
p1428
S'listening'
p1429
sS'thw'
p1430
S'though'
p1431
sS'plaayin'
p1432
S'playing'
p1433
sS'thu'
p1434
S'thursday'
p1435
sS'niiice'
p1436
S'nice'
p1437
sS'ths'
p1438
S'this'
p1439
sS'eps'
p1440
S'episode'
p1441
sS'thingsz'
p1442
S'things'
p1443
sS'roomie'
p1444
S'room'
p1445
sS'tho'
p1446
S'though'
p1447
sS'thn'
p1448
S'then'
p1449
sS'thm'
p1450
S'them'
p1451
sS'truely'
p1452
S'truly'
p1453
sS'mamma'
p1454
S'mama'
p1455
sS'epi'
p1456
S'episode'
p1457
sS'amasing'
p1458
S'amazing'
p1459
sS'criminy'
p1460
S'criminal'
p1461
sS'heartt'
p1462
S'heart'
p1463
sS'godz'
p1464
S'gods'
p1465
sS'juss'
p1466
S'just'
p1467
sS'leavinqq'
p1468
S'leaving'
p1469
sS'l8r'
p1470
S'later'
p1471
sS'givin'
p1472
S'giving'
p1473
sS'yea'
p1474
S'yeah'
p1475
sS'kall'
p1476
S'call'
p1477
sS'yeg'
p1478
S'yet'
p1479
sS'showwwww'
p1480
S'show'
p1481
sS'kareful'
p1482
S'careful'
p1483
sS'llowing'
p1484
S'following'
p1485
sS'belloo'
p1486
S'bello'
p1487
sS'thankz'
p1488
S'thanks'
p1489
sS'thankx'
p1490
S'thanks'
p1491
sS'shiit'
p1492
S'shit'
p1493
sS'depressseeedd'
p1494
S'depressed'
p1495
sS'easi'
p1496
S'easy'
p1497
sS'shittt'
p1498
S'shit'
p1499
sS'wihout'
p1500
S'without'
p1501
sS'snus'
p1502
S'sinus'
p1503
sS'hattte'
p1504
S'hate'
p1505
sS'5o'
p1506
S'so'
p1507
sS'wndering'
p1508
S'wondering'
p1509
sS'anythign'
p1510
S'anything'
p1511
sS'mousse'
p1512
S'mouse'
p1513
sS'adress'
p1514
S'address'
p1515
sS'bru'
p1516
S'brother'
p1517
sS'hav'
p1518
S'have'
p1519
sS'anya'
p1520
S'anyway'
p1521
sS'bandz'
p1522
S'bands'
p1523
sS'moooney'
p1524
S'money'
p1525
sS'phenominal'
p1526
S'phenomenal'
p1527
sS'mayb'
p1528
S'maybe'
p1529
sS'capt'
p1530
S'captain'
p1531
sS'yussssssss'
p1532
S'yes'
p1533
sS'mayn'
p1534
S'main'
p1535
sS'perfects'
p1536
S'perfect'
p1537
sS'm8s'
p1538
S'mates'
p1539
sS'tmrw'
p1540
S'tomorrow'
p1541
sS'perfecto'
p1542
S'perfect'
p1543
sS'gregs'
p1544
S'gregarious'
p1545
sS'bushs'
p1546
S"bush's"
p1547
sS'sussed'
p1548
S'successes'
p1549
sS'govt'
p1550
S'government'
p1551
sS'careeeesssss'
p1552
S'cares'
p1553
sS'helpppp'
p1554
S'help'
p1555
sS'packin'
p1556
S'packing'
p1557
sS'preeetty'
p1558
S'pretty'
p1559
sS'pleeeese'
p1560
S'please'
p1561
sS"swap'd"
p1562
S'swapped'
p1563
sS'any1'
p1564
S'anyone'
p1565
sS'shxt'
p1566
S'shit'
p1567
sS'youuuu'
p1568
S'you'
p1569
sS'huni'
p1570
S'honey'
p1571
sS'comign'
p1572
S'coming'
p1573
sS'whem'
p1574
S'when'
p1575
sS'hav3'
p1576
S'have'
p1577
sS'obses'
p1578
S'obsess'
p1579
sS'suckkkk'
p1580
S'suck'
p1581
sS'fuuuuuck'
p1582
S'fuck'
p1583
sS'hit1o'
p1584
S'hit'
p1585
sS'nevr'
p1586
S'never'
p1587
sS'moval'
p1588
S'moral'
p1589
sS'teh'
p1590
S'the'
p1591
sS'rebonded'
p1592
S'rebounded'
p1593
sS'paragraphh'
p1594
S'paragraph'
p1595
sS'n2'
p1596
S'into'
p1597
sS'sendi'
p1598
S'sending'
p1599
sS'everbody'
p1600
S'everybody'
p1601
sS'teil'
p1602
S'tail'
p1603
sS'helpin'
p1604
S'helping'
p1605
sS'uscan'
p1606
S'scan'
p1607
sS'oly'
p1608
S'only'
p1609
sS'productionz'
p1610
S'productions'
p1611
sS'bord'
p1612
S'board'
p1613
sS'pollite'
p1614
S'polite'
p1615
sS'wha'
p1616
S'what'
p1617
sS'ick'
p1618
S'pick'
p1619
sS'fou'
p1620
S'for'
p1621
sS'cnt'
p1622
S"can't"
p1623
sS'thtz'
p1624
S'thats'
p1625
sS"fck'n"
p1626
S'fucking'
p1627
sS"pimp'n"
p1628
S'pimping'
p1629
sS'loosin'
p1630
S'loosing'
p1631
sS'doooone'
p1632
S'done'
p1633
sS'muito'
p1634
S'mute'
p1635
sS'fof'
p1636
S'for'
p1637
sS'urks'
p1638
S'irks'
p1639
sS'plannd'
p1640
S'planned'
p1641
sS'subsription'
p1642
S'subscription'
p1643
sS'completly'
p1644
S'completely'
p1645
sS'tht'
p1646
S'that'
p1647
sS'apperently'
p1648
S'apparently'
p1649
sS'buildin'
p1650
S'building'
p1651
sS'pls'
p1652
S'please'
p1653
sS'hommie'
p1654
S'home'
p1655
sS'mem'
p1656
S'member'
p1657
sS'plz'
p1658
S'please'
p1659
sS'corp'
p1660
S'corporation'
p1661
sS'kalled'
p1662
S'called'
p1663
sS'starring'
p1664
S'staring'
p1665
sS'coachin'
p1666
S'coaching'
p1667
sS'thts'
p1668
S"that's"
p1669
sS'wht'
p1670
S'what'
p1671
sS'commin'
p1672
S'coming'
p1673
sS'obj'
p1674
S'object'
p1675
sS'bytch'
p1676
S'bitch'
p1677
sS'dyin'
p1678
S'dying'
p1679
sS'succesfully'
p1680
S'successfully'
p1681
sS'gaat'
p1682
S'got'
p1683
sS'fuckeryy'
p1684
S'fuck'
p1685
sS'nama'
p1686
S'name'
p1687
sS'uu'
p1688
S'you'
p1689
sS'whateverrrrr'
p1690
S'whatever'
p1691
sS'thankyouuuuu'
p1692
S'thankyou'
p1693
sS'obv'
p1694
S'obviously'
p1695
sS'tonightt'
p1696
S'tonight'
p1697
sS'byee'
p1698
S'bye'
p1699
sS'nooooooo'
p1700
S'no'
p1701
sS'sept'
p1702
S'september'
p1703
sS'hiqh'
p1704
S'high'
p1705
sS'boycottn'
p1706
S'boycotting'
p1707
sS"x'mas"
p1708
S'christmas'
p1709
sS'rght'
p1710
S'right'
p1711
sS'soc'
p1712
S'social'
p1713
sS'whatt'
p1714
S'what'
p1715
sS'bsiness'
p1716
S'business'
p1717
sS'liek'
p1718
S'like'
p1719
sS'som'
p1720
S'some'
p1721
sS'whatz'
p1722
S"what's"
p1723
sS"shack'd"
p1724
S'shacked'
p1725
sS'ppl'
p1726
S'people'
p1727
sS'snd'
p1728
S'send'
p1729
sS'ferr'
p1730
S'for'
p1731
sS'sou'
p1732
S'so'
p1733
sS'dayyy'
p1734
S'day'
p1735
sS'aht'
p1736
S'out'
p1737
sS'liez'
p1738
S'lies'
p1739
sS'soz'
p1740
S'sorry'
p1741
sS'sameg'
p1742
S'same'
p1743
sS'samee'
p1744
S'same'
p1745
sS'giv'
p1746
S'give'
p1747
sS'git'
p1748
S'get'
p1749
sS'olf'
p1750
S'of'
p1751
sS'cali'
p1752
S'california'
p1753
sS'wad'
p1754
S'was'
p1755
sS'dreamin'
p1756
S'dreaming'
p1757
sS'clappin'
p1758
S'clapping'
p1759
sS'waz'
p1760
S'was'
p1761
sS'spinnin'
p1762
S'spinning'
p1763
sS'waitn'
p1764
S'waiting'
p1765
sS'appts'
p1766
S'appointments'
p1767
sS'tnx'
p1768
S'thanks'
p1769
sS'rele'
p1770
S'really'
p1771
sS'seepy'
p1772
S'sleepy'
p1773
sS'cuttin'
p1774
S'cutting'
p1775
sS'forh'
p1776
S'fourth'
p1777
sS'frgt'
p1778
S'forgot'
p1779
sS'thxs'
p1780
S'thanks'
p1781
sS'truu'
p1782
S'true'
p1783
sS'uuuu'
p1784
S'you'
p1785
sS'so0'
p1786
S'so'
p1787
sS'mondatory'
p1788
S'mandatory'
p1789
sS'jumpin'
p1790
S'jumping'
p1791
sS'thanxx'
p1792
S'thanks'
p1793
sS'forr'
p1794
S'for'
p1795
sS'forw'
p1796
S'forward'
p1797
sS'iisj'
p1798
S'this'
p1799
sS'chuuuu'
p1800
S'you'
p1801
sS'embarrsed'
p1802
S'embarrassed'
p1803
sS'whyy'
p1804
S'why'
p1805
sS'layn'
p1806
S'laying'
p1807
sS'layin'
p1808
S'laying'
p1809
sS'konvict'
p1810
S'convict'
p1811
sS'azz'
p1812
S'ass'
p1813
sS'cutiie'
p1814
S'cutie'
p1815
sS'ferme'
p1816
S'frame'
p1817
sS'attn'
p1818
S'attention'
p1819
sS'mtg'
p1820
S'meeting'
p1821
sS'trippen'
p1822
S'tripping'
p1823
sS'tday'
p1824
S'today'
p1825
sS'shii'
p1826
S'shit'
p1827
sS'moore'
p1828
S'more'
p1829
sS'qik'
p1830
S'quick'
p1831
sS'showin'
p1832
S'showing'
p1833
sS'indiaaaaaaaa'
p1834
S'india'
p1835
sS'luqid'
p1836
S'liquid'
p1837
sS'shid'
p1838
S'shit'
p1839
sS'knwing'
p1840
S'knowing'
p1841
sS'phx'
p1842
S'phoenix'
p1843
sS'weeeeeed'
p1844
S'weed'
p1845
sS'timeee'
p1846
S'time'
p1847
sS'erybody'
p1848
S'everybody'
p1849
sS'fuuuuck'
p1850
S'fuck'
p1851
sS'tix'
p1852
S'tickets'
p1853
sS'bishhes'
p1854
S'bushes'
p1855
sS'aunty'
p1856
S'aunt'
p1857
sS'ne'
p1858
S'new'
p1859
sS'dummmy'
p1860
S'dummy'
p1861
sS'til'
p1862
S'till'
p1863
sS'tooooo'
p1864
S'too'
p1865
sS'tradtion'
p1866
S'tradition'
p1867
sS'biiggest'
p1868
S'biggest'
p1869
sS'eatininnn'
p1870
S'eating'
p1871
sS'nr'
p1872
S'near'
p1873
sS'becuase'
p1874
S'because'
p1875
sS'nt'
p1876
S'not'
p1877
sS'nu'
p1878
S'new'
p1879
sS'nw'
p1880
S'now'
p1881
sS'meeeee'
p1882
S'me'
p1883
sS'exagerate'
p1884
S'exaggerate'
p1885
sS'roomies'
p1886
S'roommates'
p1887
sS'pankcakes'
p1888
S'pancakes'
p1889
sS'belive'
p1890
S'believe'
p1891
sS'parackhute'
p1892
S'parachute'
p1893
sS'midnite'
p1894
S'midnight'
p1895
sS'notting'
p1896
S'nothing'
p1897
sS'sqm'
p1898
S'come'
p1899
sS'twiiter'
p1900
S'twitter'
p1901
sS"let'z"
p1902
S"let's"
p1903
sS'stinkin'
p1904
S'stinking'
p1905
sS'jeddah'
p1906
S'jade'
p1907
sS'totaly'
p1908
S'totally'
p1909
sS'reservati'
p1910
S'reservation'
p1911
sS'leeeeeeegends'
p1912
S'legends'
p1913
sS'hiii'
p1914
S'hi'
p1915
sS'pinaple'
p1916
S'pineapple'
p1917
sS'pressies'
p1918
S'presents'
p1919
sS'nything'
p1920
S'nothing'
p1921
sS'bedd'
p1922
S'bed'
p1923
sS'butterflyy'
p1924
S'butterfly'
p1925
sS'tekken'
p1926
S'taken'
p1927
sS'sendin'
p1928
S'sending'
p1929
sS'ooohhh'
p1930
S'oh'
p1931
sS'songz'
p1932
S'songs'
p1933
sS'whooolee'
p1934
S'whole'
p1935
sS'babyyy'
p1936
S'baby'
p1937
sS'boreddd'
p1938
S'bored'
p1939
sS'crazyyy'
p1940
S'crazy'
p1941
sS'gett'
p1942
S'get'
p1943
sS'blocca'
p1944
S'blocking'
p1945
sS'pckged'
p1946
S'packaged'
p1947
sS'bfast'
p1948
S'breakfast'
p1949
sS'dremas'
p1950
S'dreams'
p1951
sS'celebs'
p1952
S'celebrities'
p1953
sS'cking'
p1954
S'cooking'
p1955
sS'sleeeep'
p1956
S'sleep'
p1957
sS'theaterr'
p1958
S'theater'
p1959
sS'lynseys'
p1960
S'lenses'
p1961
sS'wiit'
p1962
S'wait'
p1963
sS'rou'
p1964
S'routine'
p1965
sS'cuzins'
p1966
S'cousins'
p1967
sS'metiion'
p1968
S'mention'
p1969
sS'bitchin'
p1970
S'bitching'
p1971
sS'hyeee'
p1972
S'hey'
p1973
sS'happpy'
p1974
S'happy'
p1975
sS'absolutly'
p1976
S'absolutely'
p1977
sS'retarted'
p1978
S'retarded'
p1979
sS'sched'
p1980
S'shed'
p1981
sS'thro'
p1982
S'throw'
p1983
sS'whattttt'
p1984
S'what'
p1985
sS'craaaaack'
p1986
S'crack'
p1987
sS'hurtin'
p1988
S'hurting'
p1989
sS'veg'
p1990
S'vegetarian'
p1991
sS'themmmmm'
p1992
S'them'
p1993
sS'drpd'
p1994
S'dropped'
p1995
sS'looose'
p1996
S'lose'
p1997
sS'chged'
p1998
S'changed'
p1999
sS'scrawny'
p2000
S'scan'
p2001
sS'rightt'
p2002
S'right'
p2003
sS'saturdayyy'
p2004
S'saturday'
p2005
sS'pumpin'
p2006
S'pumping'
p2007
sS'krazy'
p2008
S'crazy'
p2009
sS'bitcjes'
p2010
S'bitches'
p2011
sS'slvr'
p2012
S'silver'
p2013
sS'prog'
p2014
S'program'
p2015
sS'geeeezzz'
p2016
S'jesus'
p2017
sS'tuday'
p2018
S'today'
p2019
sS'stayy'
p2020
S'stay'
p2021
sS'yuup'
p2022
S'yes'
p2023
sS'ammounts'
p2024
S'amounts'
p2025
sS'gnarly'
p2026
S'generaly'
p2027
sS'gua'
p2028
S'guy'
p2029
sS'knockin'
p2030
S'knocking'
p2031
sS'gud'
p2032
S'good'
p2033
sS'postt'
p2034
S'post'
p2035
sS'peeps'
p2036
S'people'
p2037
sS'turnt'
p2038
S'turn'
p2039
sS'gul'
p2040
S'girl'
p2041
sS'soooo'
p2042
S'so'
p2043
sS'sooon'
p2044
S'soon'
p2045
sS'diz'
p2046
S'this'
p2047
sS'fuuuck'
p2048
S'fuck'
p2049
sS'div'
p2050
S'did'
p2051
sS'leavn'
p2052
S'leaving'
p2053
sS'dis'
p2054
S'this'
p2055
sS'amazin'
p2056
S'amazing'
p2057
sS'remindin'
p2058
S'reminding'
p2059
sS'phff'
p2060
S'puff'
p2061
sS'rec'
p2062
S'record'
p2063
sS'pikir'
p2064
S'piker'
p2065
sS'sayy'
p2066
S'say'
p2067
sS'smackin'
p2068
S'smacking'
p2069
sS'plzzzzz'
p2070
S'please'
p2071
sS'htt'
p2072
S'hot'
p2073
sS'steppin'
p2074
S'stepping'
p2075
sS'bakk'
p2076
S'back'
p2077
sS'htp'
p2078
S'hip'
p2079
sS'bloggged'
p2080
S'blogged'
p2081
sS'evrday'
p2082
S'everyday'
p2083
sS'pedi'
p2084
S'pedicure'
p2085
sS'schoool'
p2086
S'school'
p2087
sS'renactment'
p2088
S'reenactment'
p2089
sS'tne'
p2090
S'the'
p2091
sS'furriends'
p2092
S'friends'
p2093
sS'heres'
p2094
S"here's"
p2095
sS'hse'
p2096
S'he'
p2097
sS'fallinq'
p2098
S'falling'
p2099
sS'addy'
p2100
S'address'
p2101
sS'messinng'
p2102
S'messing'
p2103
sS'standn'
p2104
S'standing'
p2105
sS'saiid'
p2106
S'said'
p2107
sS'beautifull'
p2108
S'beautiful'
p2109
sS'heree'
p2110
S'here'
p2111
sS'ridic'
p2112
S'ridiculous'
p2113
sS'gawd'
p2114
S'god'
p2115
sS'hairz'
p2116
S"hair's"
p2117
sS"upgrade'n"
p2118
S'upgrading'
p2119
sS'sthingz'
p2120
S'something'
p2121
sS'nght'
p2122
S'night'
p2123
sS'ridin'
p2124
S'riding'
p2125
sS'rubbas'
p2126
S'rubbers'
p2127
sS'hushh'
p2128
S'hush'
p2129
sS'smthg'
p2130
S'something'
p2131
sS'locas'
p2132
S'local'
p2133
sS'laughin'
p2134
S'laughing'
p2135
sS'tagal'
p2136
S'tackle'
p2137
sS'yds'
p2138
S'yards'
p2139
sS'bluddy'
p2140
S'bloody'
p2141
sS'puss'
p2142
S'pussy'
p2143
sS"grind'n"
p2144
S'grinding'
p2145
sS'shooo'
p2146
S'sure'
p2147
sS'stomache'
p2148
S'stomach'
p2149
sS'pleaseee'
p2150
S'please'
p2151
sS'bos'
p2152
S'boss'
p2153
sS'zooin'
p2154
S'doing'
p2155
sS'screamin'
p2156
S'screaming'
p2157
sS'wunted'
p2158
S'wanted'
p2159
sS'teevee'
p2160
S'television'
p2161
sS'boi'
p2162
S'boy'
p2163
sS'jammin'
p2164
S'jamming'
p2165
sS'sucka'
p2166
S'suck'
p2167
sS'bording'
p2168
S'boarding'
p2169
sS'bod'
p2170
S'body'
p2171
sS'friendss'
p2172
S'friends'
p2173
sS'luda'
p2174
S'love'
p2175
sS'bs'
p2176
S'bullshit'
p2177
sS'consequeces'
p2178
S'consequences'
p2179
sS'heavilly'
p2180
S'heavily'
p2181
sS'tommorrow'
p2182
S'tomorrow'
p2183
sS'buble'
p2184
S'bubble'
p2185
sS'blck'
p2186
S'black'
p2187
sS'drammmmmaaa'
p2188
S'drama'
p2189
sS'charater'
p2190
S'character'
p2191
sS'llife'
p2192
S'life'
p2193
sS'jan'
p2194
S'january'
p2195
sS'looooong'
p2196
S'long'
p2197
sS'insidee'
p2198
S'inside'
p2199
sS'aye'
p2200
S'yes'
p2201
sS'andd'
p2202
S'and'
p2203
sS'pref'
p2204
S'preference'
p2205
sS'walkin'
p2206
S'walking'
p2207
sS'filme'
p2208
S'film'
p2209
sS'cutee'
p2210
S'cute'
p2211
sS'baee'
p2212
S'baby'
p2213
sS'ayy'
p2214
S'any'
p2215
sS'httpp'
p2216
S'http'
p2217
sS'prez'
p2218
S'president'
p2219
sS'msg'
p2220
S'message'
p2221
sS'ayt'
p2222
S'alright'
p2223
sS'thru'
p2224
S'through'
p2225
sS'bigg'
p2226
S'big'
p2227
sS'pres'
p2228
S'press'
p2229
sS'peope'
p2230
S'people'
p2231
sS'skul'
p2232
S'school'
p2233
sS'liddle'
p2234
S'little'
p2235
sS'blackberrys'
p2236
S'blackberry'
p2237
sS'tuesdayss'
p2238
S'tuesdays'
p2239
sS'ooh'
p2240
S'oh'
p2241
sS'blackberryy'
p2242
S'blackberry'
p2243
sS'awesommmme'
p2244
S'awesome'
p2245
sS'adverts'
p2246
S'advertise'
p2247
sS'luvv'
p2248
S'love'
p2249
sS'rebelde'
p2250
S'rebelled'
p2251
sS'caz'
p2252
S'because'
p2253
sS'christmast'
p2254
S'christmas'
p2255
sS'christmass'
p2256
S'christmas'
p2257
sS'uuu'
p2258
S'you'
p2259
sS'whaaaat'
p2260
S'what'
p2261
sS'bitee'
p2262
S'bite'
p2263
sS'battl'
p2264
S'battle'
p2265
sS'looook'
p2266
S'look'
p2267
sS'niggaz'
p2268
S'niggers'
p2269
sS'milada'
p2270
S'mild'
p2271
sS'whatev'
p2272
S'whatever'
p2273
sS'cam'
p2274
S'camera'
p2275
sS'friemds'
p2276
S'friends'
p2277
sS'fla'
p2278
S'florida'
p2279
sS'sleeep'
p2280
S'sleep'
p2281
sS'doooooo'
p2282
S'do'
p2283
sS'pleeease'
p2284
S'please'
p2285
sS'chix'
p2286
S'chicks'
p2287
sS'diabeetus'
p2288
S'diabetes'
p2289
sS'fucc'
p2290
S'fuck'
p2291
sS'lockd'
p2292
S'locked'
p2293
sS'tgey'
p2294
S'they'
p2295
sS'kiddos'
p2296
S'kids'
p2297
sS'treatin'
p2298
S'treating'
p2299
sS'chik'
p2300
S'chick'
p2301
sS'partay'
p2302
S'party'
p2303
sS'meeted'
p2304
S'met'
p2305
sS'socilism'
p2306
S'socialism'
p2307
sS'furnis'
p2308
S'furnished'
p2309
sS'wayyyy'
p2310
S'way'
p2311
sS'outtt'
p2312
S'out'
p2313
sS'duecez'
p2314
S'dices'
p2315
sS'wunt'
p2316
S"won't"
p2317
sS'bassline'
p2318
S'baseline'
p2319
sS'explodeee'
p2320
S'explode'
p2321
sS'crimbo'
p2322
S'christmas'
p2323
sS'alway'
p2324
S'always'
p2325
sS'surpose'
p2326
S'suppose'
p2327
sS'tooookk'
p2328
S'took'
p2329
sS'dhese'
p2330
S'these'
p2331
sS'everydy'
p2332
S'everyday'
p2333
sS'wudnt'
p2334
S"wouldn't"
p2335
sS'yaaaay'
p2336
S'yay'
p2337
sS'liink'
p2338
S'link'
p2339
sS'birthdai'
p2340
S'birthday'
p2341
sS'whoaa'
p2342
S'who'
p2343
sS'snc'
p2344
S'since'
p2345
sS'obvs'
p2346
S'obviously'
p2347
sS'datt'
p2348
S'that'
p2349
sS'cuhz'
p2350
S'because'
p2351
sS'payce'
p2352
S'peace'
p2353
sS'sweeeeeeet'
p2354
S'sweet'
p2355
sS'dats'
p2356
S"that's"
p2357
sS'frshmn'
p2358
S'freshman'
p2359
sS'snr'
p2360
S'senior'
p2361
sS'guyz'
p2362
S'guys'
p2363
sS"cont'd"
p2364
S'continued'
p2365
sS'loooonnnngggooooo'
p2366
S'longo'
p2367
sS'ritee'
p2368
S'right'
p2369
sS'obvi'
p2370
S'obviously'
p2371
sS'bfing'
p2372
S'breastfeeding'
p2373
sS'sz'
p2374
S'size'
p2375
sS'ckall'
p2376
S'call'
p2377
sS'hannover'
p2378
S'hangover'
p2379
sS'basterd'
p2380
S'bastard'
p2381
sS'fckk'
p2382
S'fuck'
p2383
sS'muzik'
p2384
S'music'
p2385
sS'sq'
p2386
S'square'
p2387
sS'rollin'
p2388
S'rolling'
p2389
sS'smellin'
p2390
S'smelling'
p2391
sS'blastin'
p2392
S'blasting'
p2393
sS'undrstnd'
p2394
S'understand'
p2395
sS'repl'
p2396
S'reply'
p2397
sS'tonights'
p2398
S"tonight's"
p2399
sS'sm'
p2400
S'some'
p2401
sS"q'd"
p2402
S'stayed'
p2403
sS'trucc'
p2404
S'truck'
p2405
sS'kurs'
p2406
S'curse'
p2407
sS'spillin'
p2408
S'spilling'
p2409
sS'witt'
p2410
S'with'
p2411
sS'inte'
p2412
S'interface'
p2413
sS'approx'
p2414
S'approximately'
p2415
sS'whoopin'
p2416
S'whooping'
p2417
sS'appartment'
p2418
S'apartment'
p2419
sS'tts'
p2420
S"that's"
p2421
sS'cutt'
p2422
S'cut'
p2423
sS'dyd'
p2424
S'did'
p2425
sS'lst'
p2426
S'last'
p2427
sS'rackin'
p2428
S'racking'
p2429
sS'punkkkk'
p2430
S'punk'
p2431
sS'karrot'
p2432
S'carrot'
p2433
sS'konw'
p2434
S'know'
p2435
sS'widd'
p2436
S'with'
p2437
sS'birthdayy'
p2438
S'birthday'
p2439
sS'whoz'
p2440
S"who's"
p2441
sS'tweetn'
p2442
S'tweeting'
p2443
sS'vtg'
p2444
S'vintage'
p2445
sS'addres'
p2446
S'address'
p2447
sS'smoothie'
p2448
S'smooth'
p2449
sS'rumoured'
p2450
S'remarried'
p2451
sS'mizzin'
p2452
S'missing'
p2453
sS'faves'
p2454
S'favorites'
p2455
sS'bondi'
p2456
S'bonds'
p2457
sS'lyin'
p2458
S'lying'
p2459
sS'shudnt'
p2460
S"shouldn't"
p2461
sS'sumbori'
p2462
S'somebody'
p2463
sS'tomorow'
p2464
S'tomorrow'
p2465
sS'scifi'
p2466
S'scientific'
p2467
sS'thril'
p2468
S'thriller'
p2469
sS'momz'
p2470
S'mom'
p2471
sS'inite'
p2472
S'invite'
p2473
sS'noo'
p2474
S'no'
p2475
sS'prophy'
p2476
S'prophecy'
p2477
sS'freinnds'
p2478
S'friends'
p2479
sS'financi'
p2480
S'finance'
p2481
sS'bein'
p2482
S'being'
p2483
sS'sartuday'
p2484
S'saturday'
p2485
sS'quiick'
p2486
S'quick'
p2487
sS'feelin'
p2488
S'feeling'
p2489
sS'piercin'
p2490
S'piercing'
p2491
sS'naija'
p2492
S'nigerian'
p2493
sS'gaolll'
p2494
S'girl'
p2495
sS'damnnnn'
p2496
S'damn'
p2497
sS'abole'
p2498
S'able'
p2499
sS'nou'
p2500
S'not'
p2501
sS'nov'
p2502
S'november'
p2503
sS'shhh'
p2504
S'she'
p2505
sS'nos'
p2506
S'knows'
p2507
sS'concerto'
p2508
S'concert'
p2509
sS'anutha'
p2510
S'another'
p2511
sS'magazin'
p2512
S'magazine'
p2513
sS'batt'
p2514
S'battery'
p2515
sS'cuzz'
p2516
S'because'
p2517
sS'shyte'
p2518
S'shit'
p2519
sS'januari'
p2520
S'january'
p2521
sS'matchin'
p2522
S'matching'
p2523
sS'buscuit'
p2524
S'biscuit'
p2525
sS'changin'
p2526
S'changing'
p2527
sS'em'
p2528
S'them'
p2529
sS'qz'
p2530
S'quiz'
p2531
sS'yeaa'
p2532
S'yeah'
p2533
sS'agin'
p2534
S'again'
p2535
sS'draaaag'
p2536
S'drag'
p2537
sS'continu'
p2538
S'continue'
p2539
sS'miin'
p2540
S'minute'
p2541
sS'wizzard'
p2542
S'wizard'
p2543
sS'ez'
p2544
S'easy'
p2545
sS'kant'
p2546
S"can't"
p2547
sS'ev'
p2548
S'even'
p2549
sS'ep'
p2550
S'episode'
p2551
sS'bruva'
p2552
S'brother'
p2553
sS'keinstall'
p2554
S'reinstall'
p2555
sS'mrathi'
p2556
S'marathi'
p2557
sS'brekfust'
p2558
S'breakfast'
p2559
sS'profil'
p2560
S'profile'
p2561
sS'wiskey'
p2562
S'whiskey'
p2563
sS'bln'
p2564
S'billion'
p2565
sS'blk'
p2566
S'bulk'
p2567
sS'livinq'
p2568
S'living'
p2569
sS'showw'
p2570
S'show'
p2571
sS'gasc'
p2572
S'gas'
p2573
sS'undead'
p2574
S'unread'
p2575
sS'trinitee'
p2576
S'trained'
p2577
sS'folowing'
p2578
S'following'
p2579
sS'hallo'
p2580
S'hello'
p2581
sS'alllll'
p2582
S'all'
p2583
sS'quita'
p2584
S'quite'
p2585
sS'itttt'
p2586
S'it'
p2587
sS'liddo'
p2588
S'little'
p2589
sS'gotz'
p2590
S'got'
p2591
sS'chilen'
p2592
S'chilling'
p2593
sS'rly'
p2594
S'really'
p2595
sS'focased'
p2596
S'focused'
p2597
sS'gots'
p2598
S'got'
p2599
sS'improtance'
p2600
S'importance'
p2601
sS'orlandooooo'
p2602
S'orlando'
p2603
sS"mofo's"
p2604
S'motherfuckers'
p2605
sS'couldn'
p2606
S"couldn't"
p2607
sS'sry'
p2608
S'sorry'
p2609
sS'yup'
p2610
S'yes'
p2611
sS'yur'
p2612
S'your'
p2613
sS'yuu'
p2614
S'you'
p2615
sS'pomegranite'
p2616
S'pomegranate'
p2617
sS'xmas'
p2618
S'christmas'
p2619
sS'biotch'
p2620
S'bitch'
p2621
sS'scarry'
p2622
S'scary'
p2623
sS'apologising'
p2624
S'apologizing'
p2625
sS'bomfire'
p2626
S'bonfire'
p2627
sS'uuuuuuu'
p2628
S'you'
p2629
sS'draggin'
p2630
S'dragging'
p2631
sS'yess'
p2632
S'yes'
p2633
sS'urslef'
p2634
S'ourself'
p2635
sS'hoppin'
p2636
S'hopping'
p2637
sS'muchh'
p2638
S'much'
p2639
sS'waitin'
p2640
S'waiting'
p2641
sS'ove'
p2642
S'over'
p2643
sS'y'
p2644
S'why'
p2645
sS'crit'
p2646
S'critical'
p2647
sS'acct'
p2648
S'account'
p2649
sS'weds'
p2650
S'wednesday'
p2651
sS'yeeaaa'
p2652
S'yeah'
p2653
sS'ont'
p2654
S"don't"
p2655
sS'yackin'
p2656
S'yacking'
p2657
sS'shareeee'
p2658
S'share'
p2659
sS'1s'
p2660
S'once'
p2661
sS'analy'
p2662
S'annually'
p2663
sS'slepy'
p2664
S'slept'
p2665
sS'pleease'
p2666
S'please'
p2667
sS'plzzzzzz'
p2668
S'please'
p2669
sS'fml'
p2670
S'family'
p2671
sS'teeammo'
p2672
S'team'
p2673
sS'intill'
p2674
S'until'
p2675
sS'definitly'
p2676
S'definitely'
p2677
sS'politial'
p2678
S'political'
p2679
sS'bitt'
p2680
S'bit'
p2681
sS'finalllyyyy'
p2682
S'finally'
p2683
sS'bitchhhh'
p2684
S'bitch'
p2685
sS'partna'
p2686
S'partner'
p2687
sS'amooo'
p2688
S'ammo'
p2689
sS'pnt'
p2690
S'point'
p2691
sS'h3r3'
p2692
S'here'
p2693
sS'thankss'
p2694
S'thanks'
p2695
sS'much1'
p2696
S'much'
p2697
sS'thaa'
p2698
S'the'
p2699
sS'cunted'
p2700
S'counted'
p2701
sS'bajo'
p2702
S'banjo'
p2703
sS'becus'
p2704
S'because'
p2705
sS'adoroo'
p2706
S'adore'
p2707
sS'togeher'
p2708
S'together'
p2709
sS's0ng'
p2710
S'song'
p2711
sS'becuz'
p2712
S'because'
p2713
sS'preciate'
p2714
S'appreciate'
p2715
sS'serv'
p2716
S'service'
p2717
sS'gotti'
p2718
S'got'
p2719
sS'evertime'
p2720
S'everytime'
p2721
sS'fuking'
p2722
S'fucking'
p2723
sS'prfile'
p2724
S'profile'
p2725
sS'mannnn'
p2726
S'man'
p2727
sS'shiettt'
p2728
S'shit'
p2729
sS'looove'
p2730
S'love'
p2731
sS'r'
p2732
S'are'
p2733
sS'sickkkk'
p2734
S'sick'
p2735
sS'orgs'
p2736
S'organisations'
p2737
sS'havnt'
p2738
S"haven't"
p2739
sS'dissapointed'
p2740
S'disappointed'
p2741
sS'crackn'
p2742
S'cracking'
p2743
sS'waiiit'
p2744
S'wait'
p2745
sS'pleaseeeee'
p2746
S'please'
p2747
sS'whut'
p2748
S'what'
p2749
sS'babiiiiiiiiiiiiiiiiiiiiiiiiiiiiiiiiii'
p2750
S'baby'
p2751
sS'licc'
p2752
S'lick'
p2753
sS'ani'
p2754
S'and'
p2755
sS'nicee'
p2756
S'nice'
p2757
sS'anw'
p2758
S'anyway'
p2759
sS'hollidays'
p2760
S'holidays'
p2761
sS'loko'
p2762
S'look'
p2763
sS'duit'
p2764
S'suit'
p2765
sS'ans'
p2766
S'answer'
p2767
sS'strt'
p2768
S'start'
p2769
sS'werken'
p2770
S'weaken'
p2771
sS'merecal'
p2772
S'miracle'
p2773
sS'nott'
p2774
S'not'
p2775
sS'burnin'
p2776
S'burning'
p2777
sS'nots'
p2778
S'not'
p2779
sS'thangs'
p2780
S'things'
p2781
sS'celebritiess'
p2782
S'celebrities'
p2783
sS'asside'
p2784
S'aside'
p2785
sS'helphelphelppppp'
p2786
S'help'
p2787
sS'alonee'
p2788
S'alone'
p2789
sS'curch'
p2790
S'church'
p2791
sS'shallowing'
p2792
S'swallowing'
p2793
sS'vooral'
p2794
S'viral'
p2795
sS'somethingg'
p2796
S'something'
p2797
sS'neeeeed'
p2798
S'need'
p2799
sS"mag's"
p2800
S"magazine's"
p2801
sS'tke'
p2802
S'take'
p2803
sS'fuckkin'
p2804
S'fucking'
p2805
sS'wooot'
p2806
S'what'
p2807
sS'fallz'
p2808
S'falls'
p2809
sS'numeri'
p2810
S'numeric'
p2811
sS'nighhtt'
p2812
S'night'
p2813
sS'wird'
p2814
S'with'
p2815
sS'numero'
p2816
S'number'
p2817
sS'toooo'
p2818
S'too'
p2819
sS'urgt'
p2820
S'urgent'
p2821
sS'ckool'
p2822
S'cool'
p2823
sS'suree'
p2824
S'sure'
p2825
sS'fck'
p2826
S'fuck'
p2827
sS'definatly'
p2828
S'definitely'
p2829
sS'gdns'
p2830
S'goodness'
p2831
sS'shyyytt'
p2832
S'shit'
p2833
sS'everrrrrrrrrr'
p2834
S'ever'
p2835
sS'lawd'
p2836
S'lord'
p2837
sS'bangin'
p2838
S'banging'
p2839
sS'sleepin'
p2840
S'sleeping'
p2841
sS'yesssss'
p2842
S'yes'
p2843
sS'sincerly'
p2844
S'sincerely'
p2845
sS'babba'
p2846
S'baby'
p2847
sS'badd'
p2848
S'bad'
p2849
sS'mre'
p2850
S'more'
p2851
sS'everrr'
p2852
S'ever'
p2853
sS'damnn'
p2854
S'damn'
p2855
sS'cuddlee'
p2856
S'cuddle'
p2857
sS'uuup'
p2858
S'up'
p2859
sS'uverse'
p2860
S'universe'
p2861
sS'qot'
p2862
S'got'
p2863
sS'upcomming'
p2864
S'upcoming'
p2865
sS'neeeeeds'
p2866
S'needs'
p2867
sS'badddddddd'
p2868
S'bad'
p2869
sS'convos'
p2870
S'conversation'
p2871
sS'joshh'
p2872
S'josh'
p2873
sS'mazing'
p2874
S'amazing'
p2875
sS'qoo'
p2876
S'go'
p2877
sS'takin'
p2878
S'taking'
p2879
sS'tkx'
p2880
S'thanks'
p2881
sS'evnt'
p2882
S'event'
p2883
sS'onli'
p2884
S'only'
p2885
sS'hyping'
p2886
S'hoping'
p2887
sS'pressu'
p2888
S'pressure'
p2889
sS'hoooow'
p2890
S'how'
p2891
sS'crazyy'
p2892
S'crazy'
p2893
sS'faaace'
p2894
S'face'
p2895
sS'vid'
p2896
S'video'
p2897
sS'actin'
p2898
S'acting'
p2899
sS'blach'
p2900
S'black'
p2901
sS'safeee'
p2902
S'safe'
p2903
sS'testin'
p2904
S'testing'
p2905
sS'fillipino'
p2906
S'filipino'
p2907
sS'ite'
p2908
S'it'
p2909
sS'getin'
p2910
S'getting'
p2911
sS'whilee'
p2912
S'while'
p2913
sS'4ever'
p2914
S'forever'
p2915
sS'2mz'
p2916
S'tomorrow'
p2917
sS'skerrd'
p2918
S'scared'
p2919
sS'hiss'
p2920
S'his'
p2921
sS'expess'
p2922
S'express'
p2923
sS'writted'
p2924
S'written'
p2925
sS'frontin'
p2926
S'fronting'
p2927
sS'misssy'
p2928
S'missy'
p2929
sS'cryin'
p2930
S'crying'
p2931
sS'whaaat'
p2932
S'what'
p2933
sS'kiiddiing'
p2934
S'kidding'
p2935
sS'geo'
p2936
S'geography'
p2937
sS'buuuut'
p2938
S'but'
p2939
sS'thanksss'
p2940
S'thanks'
p2941
sS'awesooome'
p2942
S'awesome'
p2943
sS'strickd'
p2944
S'strict'
p2945
sS'recpt'
p2946
S'receipt'
p2947
sS'cumin'
p2948
S'coming'
p2949
sS'sum'
p2950
S'some'
p2951
sS'supp'
p2952
S'support'
p2953
sS"see's"
p2954
S'sees'
p2955
sS'cookiin'
p2956
S'cooking'
p2957
sS'jacsonville'
p2958
S'jacksonville'
p2959
sS'soow'
p2960
S'show'
p2961
sS'tryg'
p2962
S'trying'
p2963
sS'supr'
p2964
S'super'
p2965
sS'hunnnyy'
p2966
S'honey'
p2967
sS'gracefuly'
p2968
S'gracefully'
p2969
sS'doingg'
p2970
S'doing'
p2971
sS'seeems'
p2972
S'seems'
p2973
sS'wud'
p2974
S'would'
p2975
sS'lyfe'
p2976
S'life'
p2977
sS'iirratiin'
p2978
S'irritating'
p2979
sS'lng'
p2980
S'long'
p2981
sS'nvrmnd'
p2982
S'nevermind'
p2983
sS'deeeep'
p2984
S'deep'
p2985
sS'intim'
p2986
S'intimation'
p2987
sS'wayy'
p2988
S'way'
p2989
sS'radd'
p2990
S'radical'
p2991
sS'lettin'
p2992
S'letting'
p2993
sS'endoresment'
p2994
S'endorsement'
p2995
sS'wtch'
p2996
S'watch'
p2997
sS'checkd'
p2998
S'checked'
p2999
sS'straiqht'
p3000
S'straight'
p3001
sS'thurs'
p3002
S'thursday'
p3003
sS'goddd'
p3004
S'god'
p3005
sS'aound'
p3006
S'around'
p3007
sS'dinero'
p3008
S'dinner'
p3009
sS'hyoomans'
p3010
S'humans'
p3011
sS'tlkn'
p3012
S'talking'
p3013
sS'yepp'
p3014
S'yes'
p3015
sS'knowww'
p3016
S'know'
p3017
sS'hurtd'
p3018
S'hurt'
p3019
sS'eveyrone'
p3020
S'everyone'
p3021
sS'sembuh'
p3022
S'swamp'
p3023
sS'jz'
p3024
S'just'
p3025
sS'kool'
p3026
S'cool'
p3027
sS'comp'
p3028
S'computer'
p3029
sS'lyyke'
p3030
S'like'
p3031
sS'yumm'
p3032
S'yummy'
p3033
sS'biebers'
p3034
S"bieber's"
p3035
sS'nuffn'
p3036
S'nothing'
p3037
sS'js'
p3038
S'just'
p3039
sS'buildn'
p3040
S'building'
p3041
sS'comn'
p3042
S'coming'
p3043
sS'sekurity'
p3044
S'security'
p3045
sS'jg'
p3046
S'jug'
p3047
sS'tue'
p3048
S'tuesday'
p3049
sS'byes'
p3050
S'goodbye'
p3051
sS'bouncin'
p3052
S'bouncing'
p3053
sS'relaionship'
p3054
S'relationship'
p3055
sS'comee'
p3056
S'come'
p3057
sS'wifey'
p3058
S'wife'
p3059
sS'bldgs'
p3060
S'buildings'
p3061
sS'nieuws'
p3062
S'news'
p3063
sS'likeee'
p3064
S'like'
p3065
sS'quien'
p3066
S'queen'
p3067
sS'yeeee'
p3068
S'you'
p3069
sS"b'fast"
p3070
S'breakfast'
p3071
sS'wakin'
p3072
S'waking'
p3073
sS'stupidd'
p3074
S'stupid'
p3075
sS'mann'
p3076
S'man'
p3077
sS'suckin'
p3078
S'sucking'
p3079
sS'jailin'
p3080
S'jailing'
p3081
sS'yoooou'
p3082
S'you'
p3083
sS"want's"
p3084
S'wants'
p3085
sS'thos3'
p3086
S'those'
p3087
sS'diffrent'
p3088
S'different'
p3089
sS'hve'
p3090
S'have'
p3091
sS'spendingg'
p3092
S'spending'
p3093
sS'messin'
p3094
S'messing'
p3095
sS'whaaaaaat'
p3096
S'what'
p3097
sS'anto'
p3098
S'into'
p3099
sS'pleeeeease'
p3100
S'please'
p3101
sS'pok'
p3102
S'poke'
p3103
sS'noooow'
p3104
S'now'
p3105
sS'antg'
p3106
S'any'
p3107
sS'youuuuuu'
p3108
S'you'
p3109
sS'wanttttt'
p3110
S'want'
p3111
sS'yooooo'
p3112
S'you'
p3113
sS'twic'
p3114
S'twice'
p3115
sS'awsome'
p3116
S'awesome'
p3117
sS'thearter'
p3118
S'theater'
p3119
sS'barbquing'
p3120
S'barbecuing'
p3121
sS'pck'
p3122
S'pack'
p3123
sS'folow'
p3124
S'follow'
p3125
sS'mayhaps'
p3126
S'perhaps'
p3127
sS'sez'
p3128
S'says'
p3129
sS'caree'
p3130
S'care'
p3131
sS'lifee'
p3132
S'life'
p3133
sS'qets'
p3134
S'gets'
p3135
sS'kulture'
p3136
S'culture'
p3137
sS'nit'
p3138
S'night'
p3139
sS'chocalate'
p3140
S'chocolate'
p3141
sS'2niiqht'
p3142
S'tonight'
p3143
sS'formel'
p3144
S'formula'
p3145
sS'rhum'
p3146
S'rum'
p3147
sS'photog'
p3148
S'photographer'
p3149
sS'wantt'
p3150
S'want'
p3151
sS'shinee'
p3152
S'shine'
p3153
sS'bombdiggity'
p3154
S'bomb'
p3155
sS'yoooo'
p3156
S'you'
p3157
sS'reb'
p3158
S'red'
p3159
sS'waka'
p3160
S'wake'
p3161
sS'fourm'
p3162
S'forum'
p3163
sS'hatin'
p3164
S'hating'
p3165
sS'maiiiiiiii'
p3166
S'mai'
p3167
sS'utube'
p3168
S'youtube'
p3169
sS'rediculous'
p3170
S'ridiculous'
p3171
sS'runnin'
p3172
S'running'
p3173
sS'polly'
p3174
S'probably'
p3175
sS'watchinq'
p3176
S'watching'
p3177
sS'fisshhh'
p3178
S'fish'
p3179
sS'resturant'
p3180
S'restaurant'
p3181
sS'w'
p3182
S'with'
p3183
sS'sweeeeeet'
p3184
S'sweet'
p3185
sS'grouchyyyyy'
p3186
S'grouchy'
p3187
sS'partyin'
p3188
S'partying'
p3189
sS"ystrday's"
p3190
S"yesterday's"
p3191
sS'shopp'
p3192
S'shop'
p3193
sS'pwned'
p3194
S'owned'
p3195
sS'pushin'
p3196
S'pushing'
p3197
sS'snickerssss'
p3198
S'snickers'
p3199
sS'famz'
p3200
S'fame'
p3201
sS'nyt'
p3202
S'night'
p3203
sS'broz'
p3204
S'brothers'
p3205
sS'bkuz'
p3206
S'because'
p3207
sS'thanksgivingg'
p3208
S'thanksgiving'
p3209
sS'fams'
p3210
S'famous'
p3211
sS'bros'
p3212
S'brothers'
p3213
sS'broo'
p3214
S'brother'
p3215
sS'aaaand'
p3216
S'and'
p3217
sS'trickiling'
p3218
S'trickling'
p3219
sS'tawk'
p3220
S'talk'
p3221
sS'saaid'
p3222
S'said'
p3223
sS'sippin'
p3224
S'sipping'
p3225
sS'baaby'
p3226
S'baby'
p3227
sS'sellin'
p3228
S'selling'
p3229
sS'supossed'
p3230
S'supposed'
p3231
sS'schooll'
p3232
S'school'
p3233
sS'mvmnts'
p3234
S'movements'
p3235
sS'worddd'
p3236
S'word'
p3237
sS'stealin'
p3238
S'stealing'
p3239
sS'everday'
p3240
S'everyday'
p3241
sS'shavin'
p3242
S'shaving'
p3243
sS'followerr'
p3244
S'followers'
p3245
sS'yeahhh'
p3246
S'yeah'
p3247
sS'ingland'
p3248
S'england'
p3249
sS'duzn'
p3250
S"doesn't"
p3251
sS'thee'
p3252
S'the'
p3253
sS'dooooo'
p3254
S'do'
p3255
sS'askin'
p3256
S'asking'
p3257
sS'ye'
p3258
S'you'
p3259
sS'5ayin'
p3260
S'saying'
p3261
sS'alrighty'
p3262
S'alright'
p3263
sS'caugh'
p3264
S'caught'
p3265
sS'mutha'
p3266
S'mother'
p3267
sS'bumpin'
p3268
S'bumping'
p3269
sS'deff'
p3270
S'definitely'
p3271
sS'ffffound'
p3272
S'found'
p3273
sS'cptn'
p3274
S'captain'
p3275
sS'hadddddddddddddd'
p3276
S'had'
p3277
sS'defo'
p3278
S'definitely'
p3279
sS'sed'
p3280
S'said'
p3281
sS'somhow'
p3282
S'somehow'
p3283
sS'nothin'
p3284
S'nothing'
p3285
sS'halarious'
p3286
S'hilarious'
p3287
sS'mlb'
p3288
S'mailbox'
p3289
sS'murked'
p3290
S'murdered'
p3291
sS'suuck'
p3292
S'suck'
p3293
sS'puree'
p3294
S'pure'
p3295
sS'niceeee'
p3296
S'nice'
p3297
sS'flocka'
p3298
S'flock'
p3299
sS'hubby'
p3300
S'husband'
p3301
sS'chessed'
p3302
S'stresses'
p3303
sS'yhu'
p3304
S'you'
p3305
sS'siiiick'
p3306
S'sick'
p3307
sS'ya'
p3308
S'you'
p3309
sS'nd'
p3310
S'and'
p3311
sS'mgmt'
p3312
S'management'
p3313
sS'rappe'
p3314
S'rap'
p3315
sS'sum1'
p3316
S'someone'
p3317
sS'writin'
p3318
S'writing'
p3319
sS'quaters'
p3320
S'quarters'
p3321
sS'cmmnt'
p3322
S'comment'
p3323
sS'jessicaaaa'
p3324
S'jessica'
p3325
sS'tard'
p3326
S'retard'
p3327
sS'snowin'
p3328
S'snowing'
p3329
sS'wher'
p3330
S'where'
p3331
sS'dickk'
p3332
S'dick'
p3333
sS'evrybody'
p3334
S'everybody'
p3335
sS'womans'
p3336
S"woman's"
p3337
sS'yaaay'
p3338
S'yay'
p3339
sS'stalkin'
p3340
S'stalking'
p3341
sS'canciones'
p3342
S'singers'
p3343
sS'toooooooo'
p3344
S'too'
p3345
sS'backround'
p3346
S'background'
p3347
sS'maddens'
p3348
S'maidens'
p3349
sS'yupi'
p3350
S'yes'
p3351
sS'qoinq'
p3352
S'going'
p3353
sS'righht'
p3354
S'right'
p3355
sS'feminism'
p3356
S'feminist'
p3357
sS'naw'
p3358
S'no'
p3359
sS'rulez'
p3360
S'rules'
p3361
sS'phrame'
p3362
S'phrase'
p3363
sS'amm'
p3364
S'am'
p3365
sS'mos'
p3366
S'months'
p3367
sS'hopin'
p3368
S'hoping'
p3369
sS'lado'
p3370
S'lady'
p3371
sS'pigeotto'
p3372
S'paged'
p3373
sS'ladi'
p3374
S'lady'
p3375
sS'jakk'
p3376
S'jack'
p3377
sS'whts'
p3378
S"what's"
p3379
sS'nowww'
p3380
S'now'
p3381
sS'sumn'
p3382
S'some'
p3383
sS'sitscation'
p3384
S'situation'
p3385
sS'killa'
p3386
S'killer'
p3387
sS'mon'
p3388
S'monday'
p3389
sS'bsk'
p3390
S'basket'
p3391
sS'failssss'
p3392
S'fails'
p3393
sS'baqq'
p3394
S'bag'
p3395
sS'killn'
p3396
S'killing'
p3397
sS'amt'
p3398
S'am'
p3399
sS'mod'
p3400
S'mode'
p3401
sS'ckant'
p3402
S"can't"
p3403
sS'beggin'
p3404
S'begging'
p3405
sS'hangin'
p3406
S'hanging'
p3407
sS'whhaaatttt'
p3408
S'what'
p3409
sS'cz'
p3410
S'because'
p3411
sS'weakass'
p3412
S'weeks'
p3413
sS'coordi'
p3414
S'coordinate'
p3415
sS'braught'
p3416
S'brought'
p3417
sS'heyyy'
p3418
S'hey'
p3419
sS'tommm'
p3420
S'tomorrow'
p3421
sS'uniique'
p3422
S'unique'
p3423
sS'tooooooo'
p3424
S'to'
p3425
sS'nosk'
p3426
S'not'
p3427
sS'whooomp'
p3428
S'whom'
p3429
sS'thinkn'
p3430
S'thinking'
p3431
sS'wonderin'
p3432
S'wondering'
p3433
sS'thinkk'
p3434
S'think'
p3435
sS'wuz'
p3436
S'was'
p3437
sS've'
p3438
S'have'
p3439
sS'naah'
p3440
S'no'
p3441
sS'worri3d'
p3442
S'worried'
p3443
sS'resit'
p3444
S'reset'
p3445
sS'kold'
p3446
S'gold'
p3447
sS'xclusiv'
p3448
S'exclusive'
p3449
sS'gpin'
p3450
S'gain'
p3451
sS'playin'
p3452
S'playing'
p3453
sS'probablly'
p3454
S'probably'
p3455
sS'yesss'
p3456
S'yes'
p3457
sS'sistaa'
p3458
S'sister'
p3459
sS'zionnnnn'
p3460
S'zion'
p3461
sS'pilates'
p3462
S'pirates'
p3463
sS'outt'
p3464
S'out'
p3465
sS'kma'
p3466
S'karma'
p3467
sS'liie'
p3468
S'lie'
p3469
sS'outy'
p3470
S'out'
p3471
sS'hapenned'
p3472
S'happened'
p3473
sS'evar'
p3474
S'ever'
p3475
sS'krazii'
p3476
S'crazy'
p3477
sS'kmt'
p3478
S'commit'
p3479
sS'outtie'
p3480
S'out'
p3481
sS'speshulll'
p3482
S'special'
p3483
sS'okayeee'
p3484
S'okay'
p3485
sS'pnah'
p3486
S'ahead'
p3487
sS'freee'
p3488
S'free'
p3489
sS'mwah'
p3490
S'kiss'
p3491
sS'secondz'
p3492
S'seconds'
p3493
sS'tuff'
p3494
S'tough'
p3495
sS'txting'
p3496
S'texting'
p3497
sS'dissapointing'
p3498
S'disappointing'
p3499
sS'booooo'
p3500
S'boo'
p3501
sS'asay'
p3502
S'say'
p3503
sS'plzzz'
p3504
S'please'
p3505
sS'nme'
p3506
S'name'
p3507
sS'drums'
p3508
S'drum'
p3509
sS'longggg'
p3510
S'long'
p3511
sS'brokee'
p3512
S'broken'
p3513
sS'jaboo'
p3514
S'taboo'
p3515
sS'booooy'
p3516
S'boy'
p3517
sS'yessss'
p3518
S'yes'
p3519
sS'thas'
p3520
S"that's"
p3521
sS'src'
p3522
S'search'
p3523
sS'om'
p3524
S'of'
p3525
sS'choc'
p3526
S'chocolate'
p3527
sS'happiie'
p3528
S'happy'
p3529
sS'og'
p3530
S'of'
p3531
sS'oe'
p3532
S'oh'
p3533
sS'od'
p3534
S'odd'
p3535
sS'fightin'
p3536
S'fighting'
p3537
sS'pleez'
p3538
S'please'
p3539
sS'cudd'
p3540
S'could'
p3541
sS'snel'
p3542
S'snell'
p3543
sS'cookys'
p3544
S'cooks'
p3545
sS'ov'
p3546
S'of'
p3547
sS'iiqhtt'
p3548
S'right'
p3549
sS"hott'st"
p3550
S'hottest'
p3551
sS'goiin'
p3552
S'going'
p3553
sS'2nite'
p3554
S'tonight'
p3555
sS'cuuute'
p3556
S'cute'
p3557
sS'dependin'
p3558
S'depending'
p3559
sS'yyy'
p3560
S'why'
p3561
sS'yyz'
p3562
S'yes'
p3563
sS'liike'
p3564
S'like'
p3565
sS'hapend'
p3566
S'happened'
p3567
sS'twvt'
p3568
S'tweet'
p3569
sS'chrasmatic'
p3570
S'charismatic'
p3571
sS'mngrs'
p3572
S'managers'
p3573
sS'youu'
p3574
S'you'
p3575
sS'freaken'
p3576
S'freaking'
p3577
sS'yous'
p3578
S'you'
p3579
sS'portfoli'
p3580
S'portfolio'
p3581
sS'transformar'
p3582
S'transformer'
p3583
sS'yyj'
p3584
S'age'
p3585
sS'het'
p3586
S'hit'
p3587
sS'loc'
p3588
S'local'
p3589
sS'popppppping'
p3590
S'popping'
p3591
sS'aree'
p3592
S'are'
p3593
sS'sumtin'
p3594
S'something'
p3595
sS'hes'
p3596
S"he's"
p3597
sS'niqqas'
p3598
S'niggers'
p3599
sS'ello'
p3600
S'hello'
p3601
sS'hez'
p3602
S"he's"
p3603
sS'saosin'
p3604
S'season'
p3605
sS'compliant'
p3606
S'complaint'
p3607
sS'lov'
p3608
S'love'
p3609
sS'hea'
p3610
S'head'
p3611
sS'issuin'
p3612
S'issuing'
p3613
sS'hei'
p3614
S'he'
p3615
sS'arguin'
p3616
S'arguing'
p3617
sS'starz'
p3618
S'stars'
p3619
sS'coolin'
p3620
S'cooling'
p3621
sS'mussos'
p3622
S'muscles'
p3623
sS'onlyyyyyyy'
p3624
S'only'
p3625
sS'nxt'
p3626
S'next'
p3627
sS'wholee'
p3628
S'whole'
p3629
sS'yupp'
p3630
S'yes'
p3631
sS'sh3ll'
p3632
S"she'll"
p3633
sS'rainin'
p3634
S'raining'
p3635
sS'jus'
p3636
S'just'
p3637
sS'metalic'
p3638
S'metallic'
p3639
sS'catchin'
p3640
S'catching'
p3641
sS'bunnyz'
p3642
S'bunny'
p3643
sS'morningg'
p3644
S'morning'
p3645
sS'juz'
p3646
S'just'
p3647
sS'worlddd'
p3648
S'world'
p3649
sS'jux'
p3650
S'just'
p3651
sS'ur'
p3652
S'your'
p3653
sS'tripn'
p3654
S'tripping'
p3655
sS'muderers'
p3656
S'murderers'
p3657
sS'stickin'
p3658
S'sticking'
p3659
sS'maaan'
p3660
S'man'
p3661
sS'niiiceeee'
p3662
S'nice'
p3663
sS'yaa'
p3664
S'you'
p3665
sS'toda'
p3666
S'today'
p3667
sS'tellin'
p3668
S'telling'
p3669
sS'tonite'
p3670
S'tonight'
p3671
sS'wastedddddd'
p3672
S'wasted'
p3673
sS'summin'
p3674
S'something'
p3675
sS'dragggg'
p3676
S'drag'
p3677
sS'asst'
p3678
S'assist'
p3679
sS'wuts'
p3680
S'whats'
p3681
sS'gooooodbyee'
p3682
S'goodbye'
p3683
sS'asss'
p3684
S'ass'
p3685
sS'aa'
p3686
S'a'
p3687
sS'deez'
p3688
S'these'
p3689
sS'wordd'
p3690
S'world'
p3691
sS'clippn'
p3692
S'clipping'
p3693
sS'entiendo'
p3694
S'intend'
p3695
sS'intro'
p3696
S'introduction'
p3697
sS'mengunduh'
p3698
S'mankind'
p3699
sS'statuses'
p3700
S'status'
p3701
sS'tues'
p3702
S'tuesday'
p3703
sS'yoo'
p3704
S'you'
p3705
sS'hasnt'
p3706
S"hasn't"
p3707
sS'byeeee'
p3708
S'bye'
p3709
sS'finallyy'
p3710
S'finally'
p3711
sS'effin'
p3712
S'fucking'
p3713
sS'yummmm'
p3714
S'yum'
p3715
sS'someones'
p3716
S"someone's"
p3717
sS'spazzin'
p3718
S'spazzing'
p3719
sS'friggin'
p3720
S'freaking'
p3721
sS'rememer'
p3722
S'remember'
p3723
sS'hasbroen'
p3724
S'hasbro'
p3725
sS'alseep'
p3726
S'asleep'
p3727
sS'baddd'
p3728
S'bad'
p3729
sS'bayyyyy'
p3730
S'bay'
p3731
sS'org'
p3732
S'organization'
p3733
sS'nowwwww'
p3734
S'now'
p3735
sS'plzzzz'
p3736
S'please'
p3737
sS'messagner'
p3738
S'messenger'
p3739
sS'proffesor'
p3740
S'professor'
p3741
sS'keepin'
p3742
S'keeping'
p3743
sS'n0'
p3744
S'no'
p3745
sS'smthin'
p3746
S'something'
p3747
sS'finaly'
p3748
S'finally'
p3749
sS'gurls'
p3750
S'girls'
p3751
sS'hungrey'
p3752
S'hungry'
p3753
sS'laterrr'
p3754
S'later'
p3755
sS'niceee'
p3756
S'nice'
p3757
sS'carbs'
p3758
S'carbohydrates'
p3759
sS'toqetherr'
p3760
S'together'
p3761
sS'srry'
p3762
S'sorry'
p3763
sS'boriiiiiiiiing'
p3764
S'boring'
p3765
sS'flyin'
p3766
S'flying'
p3767
sS"err'thang"
p3768
S'everything'
p3769
sS'nsync'
p3770
S'nosing'
p3771
sS'doiin'
p3772
S'doing'
p3773
sS'u'
p3774
S'you'
p3775
sS'backin'
p3776
S'backing'
p3777
sS'sickk'
p3778
S'sick'
p3779
sS'cps'
p3780
S'copies'
p3781
sS'cpt'
p3782
S'except'
p3783
sS'retch'
p3784
S'reach'
p3785
sS'talki'
p3786
S'talking'
p3787
sS'diss'
p3788
S'this'
p3789
sS'sci'
p3790
S'science'
p3791
sS'sch'
p3792
S'school'
p3793
sS'ptf'
p3794
S'perfect'
p3795
sS'errbody'
p3796
S'everybody'
p3797
sS'desconecte'
p3798
S'disconnect'
p3799
sS'thay'
p3800
S'they'
p3801
sS'everyonee'
p3802
S'everyone'
p3803
sS'sunt'
p3804
S'sent'
p3805
sS'remeber'
p3806
S'remember'
p3807
sS'viewwer'
p3808
S'viewer'
p3809
sS'messs'
p3810
S'mess'
p3811
sS'pleaseure'
p3812
S'pleasure'
p3813
sS'evvvverybody'
p3814
S'everybody'
p3815
sS'alt'
p3816
S'alternate'
p3817
sS'mnd'
p3818
S'mind'
p3819
sS'l8er'
p3820
S'later'
p3821
sS'baaaad'
p3822
S'bad'
p3823
sS'everyhthing'
p3824
S'everything'
p3825
sS'chattin'
p3826
S'chatting'
p3827
sS'sheeesh'
p3828
S'sheesh'
p3829
sS'tx'
p3830
S'texas'
p3831
sS'tv'
p3832
S'television'
p3833
sS'baddest'
p3834
S'worst'
p3835
sS'tr'
p3836
S'try'
p3837
sS'tp'
p3838
S'to'
p3839
sS'nmbr'
p3840
S'number'
p3841
sS'rize'
p3842
S'rise'
p3843
sS'2marro'
p3844
S'tomorrow'
p3845
sS'th'
p3846
S'the'
p3847
sS'interesat'
p3848
S'interesting'
p3849
sS'hellooo'
p3850
S'hello'
p3851
sS'ta'
p3852
S'to'
p3853
sS'cudnt'
p3854
S"couldn't"
p3855
sS'comercial'
p3856
S'commercial'
p3857
sS'pple'
p3858
S'people'
p3859
sS'hillarious'
p3860
S'hilarious'
p3861
sS'checkin'
p3862
S'checking'
p3863
sS'werdd'
p3864
S'weird'
p3865
sS'fav'
p3866
S'favorite'
p3867
sS'followerrs'
p3868
S'followers'
p3869
sS'youh'
p3870
S'you'
p3871
sS'rl'
p3872
S'real'
p3873
sS'wrst'
p3874
S'worst'
p3875
sS'ppls'
p3876
S'please'
p3877
sS'tatted'
p3878
S'tattooed'
p3879
sS'bestie'
p3880
S'best'
p3881
sS'fam'
p3882
S'family'
p3883
sS'fab'
p3884
S'fabulous'
p3885
sS'pplz'
p3886
S'peoples'
p3887
sS'mummmyyy'
p3888
S'mummy'
p3889
sS'fuckkkk'
p3890
S'fuck'
p3891
sS'upppp'
p3892
S'up'
p3893
sS'trippin'
p3894
S'tripping'
p3895
sS'layinn'
p3896
S'laying'
p3897
sS'appart'
p3898
S'apart'
p3899
sS'suttin'
p3900
S'something'
p3901
sS'anouying'
p3902
S'annoying'
p3903
sS'disti'
p3904
S'distribution'
p3905
sS'hvng'
p3906
S'having'
p3907
sS'scrapping'
p3908
S'scraping'
p3909
sS'startin'
p3910
S'starting'
p3911
sS'sumwhere'
p3912
S'somewhere'
p3913
sS'baaabaaay'
p3914
S'baby'
p3915
sS'streetz'
p3916
S'streets'
p3917
sS'tek'
p3918
S'take'
p3919
sS'tel'
p3920
S'tell'
p3921
sS'yeaaahhhhhh'
p3922
S'yeah'
p3923
sS'jokin'
p3924
S'joking'
p3925
sS'kiamat'
p3926
S'comet'
p3927
sS'shuold'
p3928
S'should'
p3929
sS'abooout'
p3930
S'about'
p3931
sS'shinin'
p3932
S'shining'
p3933
sS'lvls'
p3934
S'levels'
p3935
sS'ixtreme'
p3936
S'extreme'
p3937
sS'mindyy'
p3938
S'mind'
p3939
sS'ting'
p3940
S'thing'
p3941
sS'sstreet'
p3942
S'street'
p3943
sS'sud'
p3944
S'should'
p3945
sS'anywho'
p3946
S'anyhow'
p3947
sS'perf'
p3948
S'performance'
p3949
sS'publix'
p3950
S'public'
p3951
sS'havinqq'
p3952
S'having'
p3953
sS'maybeh'
p3954
S'maybe'
p3955
sS'usin'
p3956
S'using'
p3957
sS'fuckn'
p3958
S'fucking'
p3959
sS'sparatic'
p3960
S'sporadic'
p3961
sS'abt'
p3962
S'about'
p3963
sS'fuckk'
p3964
S'fuck'
p3965
sS'sup'
p3966
S'super'
p3967
sS'fucka'
p3968
S'fucker'
p3969
sS'antholo'
p3970
S'anthology'
p3971
sS'hasn'
p3972
S'has'
p3973
sS'amoleded'
p3974
S'emulated'
p3975
sS'pleaaasee'
p3976
S'please'
p3977
sS'andddd'
p3978
S'and'
p3979
sS'oakay'
p3980
S'okay'
p3981
sS'wateva'
p3982
S'whatever'
p3983
sS'hourz'
p3984
S'hours'
p3985
sS'somthing'
p3986
S'something'
p3987
sS'contd'
p3988
S'continued'
p3989
sS'm0rning'
p3990
S'morning'
p3991
sS'ohkay'
p3992
S'okay'
p3993
sS'tamorow'
p3994
S'tomorrow'
p3995
sS'aftahh'
p3996
S'after'
p3997
sS'hellllllaaaaa'
p3998
S'hell'
p3999
sS'fwd'
p4000
S'forward'
p4001
sS'likin'
p4002
S'liking'
p4003
sS'dochi'
p4004
S'duchy'
p4005
sS'pics'
p4006
S'pictures'
p4007
sS'himm'
p4008
S'him'
p4009
sS'arent'
p4010
S"aren't"
p4011
sS'countin'
p4012
S'counting'
p4013
sS'smushed'
p4014
S'smashed'
p4015
sS'okkaaayyy'
p4016
S'okay'
p4017
sS'joggin'
p4018
S'jogging'
p4019
sS'yute'
p4020
S'cute'
p4021
sS'toya'
p4022
S'toy'
p4023
sS'ohh'
p4024
S'oh'
p4025
sS'nooooooooo'
p4026
S'no'
p4027
sS'nuffin'
p4028
S'nothing'
p4029
sS'cigs'
p4030
S'cigarettes'
p4031
sS'boxxx'
p4032
S'box'
p4033
sS'2wo'
p4034
S'two'
p4035
sS'vis'
p4036
S'visual'
p4037
sS'textt'
p4038
S'text'
p4039
sS'kan'
p4040
S'can'
p4041
sS'firts'
p4042
S'first'
p4043
sS'housey'
p4044
S'house'
p4045
sS'jerkin'
p4046
S'jerking'
p4047
sS'injurd'
p4048
S'injured'
p4049
sS'announsments'
p4050
S'announcements'
p4051
sS'preferenc'
p4052
S'preference'
p4053
sS'gaay'
p4054
S'gay'
p4055
sS'internets'
p4056
S'internet'
p4057
sS'thanxs'
p4058
S'thanks'
p4059
sS'shite'
p4060
S'shit'
p4061
sS'nowwww'
p4062
S'now'
p4063
sS'sbux'
p4064
S'starbucks'
p4065
sS'tought'
p4066
S'taught'
p4067
sS"yr's"
p4068
S"year's"
p4069
sS'morn'
p4070
S'morning'
p4071
sS'autographz'
p4072
S'autographs'
p4073
sS'twt'
p4074
S'tweet'
p4075
sS'mizlers'
p4076
S'millers'
p4077
sS'eyy'
p4078
S'hey'
p4079
sS'tounch'
p4080
S'touch'
p4081
sS'dunt'
p4082
S"don't"
p4083
sS'shitt'
p4084
S'shit'
p4085
sS'storys'
p4086
S'stories'
p4087
sS'knoww'
p4088
S'know'
p4089
sS'hottt'
p4090
S'hot'
p4091
sS'komt'
p4092
S'comet'
p4093
sS'quotinqq'
p4094
S'quoting'
p4095
sS'hurri'
p4096
S'hurry'
p4097
sS'yahh'
p4098
S'yeah'
p4099
sS'lfrom'
p4100
S'from'
p4101
sS'dood'
p4102
S'dude'
p4103
sS'kome'
p4104
S'come'
p4105
sS'staement'
p4106
S'statement'
p4107
sS'boredd'
p4108
S'bored'
p4109
sS'dooo'
p4110
S'do'
p4111
sS'youuuuu'
p4112
S'you'
p4113
sS'tru'
p4114
S'true'
p4115
sS'followin'
p4116
S'following'
p4117
sS'cack'
p4118
S'back'
p4119
sS'hout'
p4120
S'out'
p4121
sS'dey'
p4122
S'they'
p4123
sS'wrdss'
p4124
S'words'
p4125
sS'des'
p4126
S'these'
p4127
sS'blak'
p4128
S'black'
p4129
sS'dev'
p4130
S'development'
p4131
sS'reallyyyyy'
p4132
S'really'
p4133
sS'raininggg'
p4134
S'raining'
p4135
sS'watchn'
p4136
S'watching'
p4137
sS'dem'
p4138
S'them'
p4139
sS'den'
p4140
S'then'
p4141
sS'dec'
p4142
S'december'
p4143
sS'ded'
p4144
S'dead'
p4145
sS'dee'
p4146
S'the'
p4147
sS'def'
p4148
S'definitely'
p4149
sS'deg'
p4150
S'degree'
p4151
sS'hid'
p4152
S'hide'
p4153
sS'cuzzin'
p4154
S'cousin'
p4155
sS'aftr'
p4156
S'after'
p4157
sS'mtgs'
p4158
S'meetings'
p4159
sS'daddys'
p4160
S"daddy's"
p4161
sS'eaze'
p4162
S'ease'
p4163
sS'afta'
p4164
S'after'
p4165
sS'voor'
p4166
S'for'
p4167
sS'wrk'
p4168
S'work'
p4169
sS'hhi'
p4170
S'hi'
p4171
sS'stil'
p4172
S'still'
p4173
sS'stim'
p4174
S'stimulus'
p4175
sS'clint'
p4176
S'client'
p4177
sS'reallyyy'
p4178
S'really'
p4179
sS'peeshed'
p4180
S'pushed'
p4181
sS'actt'
p4182
S'act'
p4183
sS'perfomence'
p4184
S'performance'
p4185
sS'mcds'
p4186
S"mcdonald's"
p4187
sS'booom'
p4188
S'boom'
p4189
sS'perm'
p4190
S'permanent'
p4191
sS'thouu'
p4192
S'though'
p4193
sS'populares'
p4194
S'popular'
p4195
sS'actn'
p4196
S'action'
p4197
sS'disign'
p4198
S'design'
p4199
sS'anywaaay'
p4200
S'anyway'
p4201
sS'ryt'
p4202
S'right'
p4203
sS'nething'
p4204
S'nothing'
p4205
sS'oya'
p4206
S'you'
p4207
sS'isn'
p4208
S"isn't"
p4209
sS'fr'
p4210
S'for'
p4211
sS'shouldnt'
p4212
S"shouldn't"
p4213
sS'ft'
p4214
S'feet'
p4215
sS'igno'
p4216
S'ignore'
p4217
sS'slo'
p4218
S'slow'
p4219
sS'fz'
p4220
S'fuzz'
p4221
sS'txtn'
p4222
S'texting'
p4223
sS'aaaaw'
p4224
S'anyway'
p4225
sS'bkk'
p4226
S'back'
p4227
sS'fa'
p4228
S'for'
p4229
sS'fb'
p4230
S'facebook'
p4231
sS'mucsicc'
p4232
S'music'
p4233
sS'aweeesome'
p4234
S'awesome'
p4235
sS'fk'
p4236
S'fuck'
p4237
sS'skedule'
p4238
S'schedule'
p4239
sS'fo'
p4240
S'for'
p4241
sS'biznesz'
p4242
S'business'
p4243
sS'fkn'
p4244
S'fucking'
p4245
sS'oouuff'
p4246
S'off'
p4247
sS'sumthn'
p4248
S'something'
p4249
sS'bizness'
p4250
S'business'
p4251
sS'sence'
p4252
S'sense'
p4253
sS'eatn'
p4254
S'eaten'
p4255
sS"thr's"
p4256
S"there's"
p4257
sS'secs'
p4258
S'seconds'
p4259
sS'mktg'
p4260
S'marketing'
p4261
sS'startd'
p4262
S'started'
p4263
sS'behea'
p4264
S'behead'
p4265
sS'eati'
p4266
S'eating'
p4267
sS'ega'
p4268
S'eagerly'
p4269
sS'ecademy'
p4270
S'academy'
p4271
sS'coac'
p4272
S'coach'
p4273
sS'wfoster'
p4274
S'foster'
p4275
sS'freind'
p4276
S'friend'
p4277
sS'bich'
p4278
S'bitch'
p4279
sS'dieeeeee'
p4280
S'die'
p4281
sS'brotha'
p4282
S'brother'
p4283
sS'heeeey'
p4284
S'hey'
p4285
sS'sooo'
p4286
S'so'
p4287
sS'morining'
p4288
S'morning'
p4289
sS'followerss'
p4290
S'followers'
p4291
sS'ita'
p4292
S'it'
p4293
sS'bcuz'
p4294
S'because'
p4295
sS'isnt'
p4296
S"isn't"
p4297
sS'itz'
p4298
S"it's"
p4299
sS'wrry'
p4300
S'worry'
p4301
sS'brib'
p4302
S'crib'
p4303
sS'itt'
p4304
S'it'
p4305
sS'alrite'
p4306
S'alright'
p4307
sS'chickn'
p4308
S'chicken'
p4309
sS'ffb'
p4310
S'facebook'
p4311
sS'wrd'
p4312
S'word'
p4313
sS'wre'
p4314
S'were'
p4315
sS'relaxin'
p4316
S'relaxing'
p4317
sS'latr'
p4318
S'later'
p4319
sS'scoo'
p4320
S'scoop'
p4321
sS'wat'
p4322
S'what'
p4323
sS'thnx'
p4324
S'thanks'
p4325
sS'alll'
p4326
S'all'
p4327
sS'lipped'
p4328
S'tipped'
p4329
sS'dolla'
p4330
S'dollar'
p4331
sS'pct'
p4332
S'picture'
p4333
sS'tweetin'
p4334
S'tweeting'
p4335
sS'dammm'
p4336
S'damn'
p4337
sS'baak'
p4338
S'back'
p4339
sS'thng'
p4340
S'thing'
p4341
sS'thnk'
p4342
S'think'
p4343
sS'bout'
p4344
S'about'
p4345
sS'cutie'
p4346
S'cute'
p4347
sS'pram'
p4348
S'parents'
p4349
sS'lickn'
p4350
S'licking'
p4351
sS'pce'
p4352
S'peace'
p4353
sS'goog'
p4354
S'good'
p4355
sS'wouldn'
p4356
S'would'
p4357
sS'allllll'
p4358
S'all'
p4359
sS'gooo'
p4360
S'go'
p4361
sS'niice'
p4362
S'nice'
p4363
sS'heeeellllllloooooooo'
p4364
S'hello'
p4365
sS'mahh'
p4366
S'my'
p4367
sS'triphynnnnn'
p4368
S'tripping'
p4369
sS'yy'
p4370
S'year'
p4371
sS'jeeze'
p4372
S'jesus'
p4373
sS'oke'
p4374
S'ok'
p4375
sS'uhp'
p4376
S'up'
p4377
sS'okk'
p4378
S'ok'
p4379
sS'yr'
p4380
S'year'
p4381
sS'yu'
p4382
S'you'
p4383
sS'yt'
p4384
S'yet'
p4385
sS'technolo'
p4386
S'technology'
p4387
sS'alwayz'
p4388
S'always'
p4389
sS'l8te'
p4390
S'late'
p4391
sS'balikin'
p4392
S'balkan'
p4393
sS'todayyy'
p4394
S'today'
p4395
sS'fount'
p4396
S'front'
p4397
sS'4got'
p4398
S'forgot'
p4399
sS'yng'
p4400
S'young'
p4401
sS'suprise'
p4402
S'surprise'
p4403
sS'robbin'
p4404
S'robbing'
p4405
sS'payed'
p4406
S'paid'
p4407
sS'prolems'
p4408
S'problems'
p4409
sS'authorisation'
p4410
S'authorization'
p4411
sS'alreadyy'
p4412
S'already'
p4413
sS'idem'
p4414
S'item'
p4415
sS'weeknd'
p4416
S'weekend'
p4417
sS'dong'
p4418
S'doing'
p4419
sS'verginity'
p4420
S'virginity'
p4421
sS'throwin'
p4422
S'throwing'
p4423
sS'wasn'
p4424
S"wasn't"
p4425
sS'bluee'
p4426
S'blue'
p4427
sS'toooooo'
p4428
S'too'
p4429
sS'numba'
p4430
S'number'
p4431
sS'realli'
p4432
S'really'
p4433
sS'syaing'
p4434
S'saying'
p4435
sS'neva'
p4436
S'never'
p4437
sS'putin'
p4438
S'putting'
p4439
sS'drawin'
p4440
S'drawing'
p4441
sS'weighh'
p4442
S'weight'
p4443
sS'betyr'
p4444
S'better'
p4445
sS'loverr'
p4446
S'lover'
p4447
sS'pleasin'
p4448
S'pleasing'
p4449
sS'prolly'
p4450
S'probably'
p4451
sS'hllywd'
p4452
S'hollywood'
p4453
sS'tommororw'
p4454
S'tomorrow'
p4455
sS'weirddd'
p4456
S'weird'
p4457
sS'whuuuuuuttttt'
p4458
S'what'
p4459
sS'bubbl'
p4460
S'bubble'
p4461
sS'sweetss'
p4462
S'sweets'
p4463
sS'darlinn'
p4464
S'darling'
p4465
sS"sty'd"
p4466
S'stayed'
p4467
sS'msia'
p4468
S'asia'
p4469
sS'ovioucly'
p4470
S'obviously'
p4471
sS'slangin'
p4472
S'slanging'
p4473
sS'textin'
p4474
S'texting'
p4475
sS'hittin'
p4476
S'hitting'
p4477
sS'amazinggg'
p4478
S'amazing'
p4479
sS'housee'
p4480
S'house'
p4481
sS'asz'
p4482
S'ass'
p4483
sS'wishin'
p4484
S'wishing'
p4485
sS'ohkaay'
p4486
S'okay'
p4487
sS'killin'
p4488
S'killing'
p4489
sS'weee'
p4490
S'we'
p4491
sS'organising'
p4492
S'organizing'
p4493
sS'quickk'
p4494
S'quick'
p4495
sS'bekause'
p4496
S'because'
p4497
sS'bendiga'
p4498
S'phonetic'
p4499
sS'cookin'
p4500
S'cooking'
p4501
sS'teaa'
p4502
S'tea'
p4503
sS'wrds'
p4504
S'words'
p4505
sS'jimmys'
p4506
S"jimmy's"
p4507
sS'pochero'
p4508
S'poacher'
p4509
sS'satday'
p4510
S'saturday'
p4511
sS'lingual'
p4512
S'bilingual'
p4513
sS'bleddy'
p4514
S'bloody'
p4515
sS'throwa'
p4516
S'throw'
p4517
sS'neext'
p4518
S'next'
p4519
sS'movember'
p4520
S'november'
p4521
sS'lubeee'
p4522
S'lube'
p4523
sS'wld'
p4524
S'would'
p4525
sS'whiteee'
p4526
S'white'
p4527
sS'whereeee'
p4528
S'where'
p4529
sS'dont'
p4530
S"don't"
p4531
sS'subsmissions'
p4532
S'submissions'
p4533
sS'bontang'
p4534
S'bonding'
p4535
sS'touchin'
p4536
S'touching'
p4537
sS'misc'
p4538
S'miss'
p4539
sS'stramers'
p4540
S'streamers'
p4541
sS'whethr'
p4542
S'whether'
p4543
sS'celeb'
p4544
S'celebrity'
p4545
sS'yoou'
p4546
S'you'
p4547
sS'fance'
p4548
S'face'
p4549
sS'dint'
p4550
S"didn't"
p4551
sS'misz'
p4552
S'miss'
p4553
sS'boredddd'
p4554
S'bored'
p4555
sS'donk'
p4556
S'done'
p4557
sS'mobbin'
p4558
S'mobbing'
p4559
sS'firstt'
p4560
S'first'
p4561
sS'jes'
p4562
S'res'
p4563
sS'igght'
p4564
S'alright'
p4565
sS'hott'
p4566
S'hot'
p4567
sS'koo'
p4568
S'cool'
p4569
sS'5th'
p4570
S'fifth'
p4571
sS'kog'
p4572
S'log'
p4573
sS'noms'
p4574
S'nominations'
p4575
sS'gettng'
p4576
S'getting'
p4577
sS'pleaz'
p4578
S'please'
p4579
sS'tatt'
p4580
S'tattoo'
p4581
sS'moar'
p4582
S'more'
p4583
sS'tats'
p4584
S"that's"
p4585
sS'skool'
p4586
S'school'
p4587
sS'noooooooooooo'
p4588
S'no'
p4589
sS'helloooo'
p4590
S'hello'
p4591
sS'waanntt'
p4592
S'want'
p4593
sS'pawpawty'
p4594
S'puppet'
p4595
sS'emmas'
p4596
S"emma's"
p4597
sS'wrked'
p4598
S'worked'
p4599
sS'qld'
p4600
S'queensland'
p4601
sS'versi'
p4602
S'version'
p4603
sS'shld'
p4604
S'should'
p4605
sS'vocab'
p4606
S'vocabulary'
p4607
sS'stf'
p4608
S'staff'
p4609
sS'chipmonk'
p4610
S'chipmunk'
p4611
sS'rappin'
p4612
S'rapping'
p4613
sS'desaster'
p4614
S'disaster'
p4615
sS'stn'
p4616
S'station'
p4617
sS'sth'
p4618
S'something'
p4619
sS'worstttttt'
p4620
S'worst'
p4621
sS'reaalll'
p4622
S'really'
p4623
sS'hanqin'
p4624
S'hanging'
p4625
sS'sorryyy'
p4626
S'sorry'
p4627
sS'sumhow'
p4628
S'somehow'
p4629
sS'stp'
p4630
S'stop'
p4631
sS'ratng'
p4632
S'rating'
p4633
sS'str'
p4634
S'strength'
p4635
sS'nuthin'
p4636
S'nothing'
p4637
sS'kinz'
p4638
S'king'
p4639
sS'backkk'
p4640
S'back'
p4641
sS'headingg'
p4642
S'heading'
p4643
sS'yoww'
p4644
S'you'
p4645
sS'meens'
p4646
S'means'
p4647
sS'oclock'
p4648
S"o'clock"
p4649
sS'jsut'
p4650
S'just'
p4651
sS'wasnt'
p4652
S"wasn't"
p4653
sS'img'
p4654
S'image'
p4655
sS'cept'
p4656
S'except'
p4657
sS'galz'
p4658
S'girls'
p4659
sS'yeaaah'
p4660
S'yeah'
p4661
sS'agen'
p4662
S'agent'
p4663
sS'leaahhh'
p4664
S'leah'
p4665
sS'kare'
p4666
S'care'
p4667
sS'mrktg'
p4668
S'marketing'
p4669
sS"gov't"
p4670
S'government'
p4671
sS'macam'
p4672
S'madam'
p4673
sS'iight'
p4674
S'light'
p4675
sS'pones'
p4676
S'phones'
p4677
sS'nightt'
p4678
S'night'
p4679
sS'lil'
p4680
S'little'
p4681
sS'loooong'
p4682
S'long'
p4683
sS'eft'
p4684
S'effect'
p4685
sS'especialy'
p4686
S'especially'
p4687
sS'lik'
p4688
S'like'
p4689
sS'dancinq'
p4690
S'dancing'
p4691
sS'steppd'
p4692
S'stepped'
p4693
sS'yeahh'
p4694
S'yeah'
p4695
sS'arevalo'
p4696
S'arrival'
p4697
sS'tomoro'
p4698
S'tomorrow'
p4699
sS'dah'
p4700
S'the'
p4701
sS'sausge'
p4702
S'sausage'
p4703
sS'copin'
p4704
S'coping'
p4705
sS'byeee'
p4706
S'bye'
p4707
sS'passwd'
p4708
S'password'
p4709
sS'w8'
p4710
S'wait'
p4711
sS'copie'
p4712
S'copy'
p4713
sS'nothinq'
p4714
S'nothing'
p4715
sS'watc'
p4716
S'watch'
p4717
sS'jst'
p4718
S'just'
p4719
sS'nothinn'
p4720
S'nothing'
p4721
sS'yewww'
p4722
S'you'
p4723
sS'assoc'
p4724
S'association'
p4725
sS'diferent'
p4726
S'different'
p4727
sS'plac'
p4728
S'place'
p4729
sS'eegs'
p4730
S'eggs'
p4731
sS'attutude'
p4732
S'attitude'
p4733
sS'wats'
p4734
S"what's"
p4735
sS'wuvv'
p4736
S'love'
p4737
sS'knw'
p4738
S'know'
p4739
sS'qreat'
p4740
S'great'
p4741
sS'noone'
p4742
S'none'
p4743
sS'choonz'
p4744
S'choose'
p4745
sS'ext'
p4746
S'extension'
p4747
sS'kw'
p4748
S'know'
p4749
sS'exp'
p4750
S'experience'
p4751
sS'faceeee'
p4752
S'face'
p4753
sS'chocs'
p4754
S'chocolate'
p4755
sS'knwo'
p4756
S'know'
p4757
sS'rtl'
p4758
S'retail'
p4759
sS'fone'
p4760
S'phone'
p4761
sS'cheerin'
p4762
S'cheering'
p4763
sS'shoper'
p4764
S'shopper'
p4765
sS'bestys'
p4766
S'bests'
p4767
sS'noduh'
p4768
S'nod'
p4769
sS'rts'
p4770
S'retweets'
p4771
sS'knws'
p4772
S'knows'
p4773
sS'scorches'
p4774
S'shines'
p4775
sS'choco'
p4776
S'chocolate'
p4777
sS'knockerrr'
p4778
S'knocker'
p4779
sS'assingment'
p4780
S'assignment'
p4781
sS'sayin'
p4782
S'saying'
p4783
sS'elsle'
p4784
S'else'
p4785
sS'schooool'
p4786
S'school'
p4787
sS'poppin'
p4788
S'popping'
p4789
sS'ttmt'
p4790
S'tomato'
p4791
sS'quer'
p4792
S'query'
p4793
sS'tomrw'
p4794
S'tomorrow'
p4795
sS'sooooooooo'
p4796
S'so'
p4797
sS'youreself'
p4798
S'yourself'
p4799
sS'homeworkk'
p4800
S'homework'
p4801
sS'probabably'
p4802
S'probably'
p4803
sS'buht'
p4804
S'but'
p4805
sS'krib'
p4806
S'crib'
p4807
sS'spammin'
p4808
S'spamming'
p4809
sS'hiw'
p4810
S'him'
p4811
sS'tommorow'
p4812
S'tomorrow'
p4813
sS'fuuuuuture'
p4814
S'future'
p4815
sS'feell'
p4816
S'feel'
p4817
sS'awesssome'
p4818
S'awesome'
p4819
sS'feeln'
p4820
S'feeling'
p4821
sS'b'
p4822
S'be'
p4823
sS'finishin'
p4824
S'finishing'
p4825
sS'buhb'
p4826
S'bulb'
p4827
sS'playn'
p4828
S'playing'
p4829
sS'hii'
p4830
S'hi'
p4831
sS'strug'
p4832
S'struggle'
p4833
sS'buhh'
p4834
S'but'
p4835
sS'seaosn'
p4836
S'season'
p4837
sS'erbody'
p4838
S'everybody'
p4839
sS'refrence'
p4840
S'reference'
p4841
sS'withh'
p4842
S'with'
p4843
sS'cought'
p4844
S'caught'
p4845
sS'frickin'
p4846
S'freaking'
p4847
sS'diggin'
p4848
S'digging'
p4849
sS'neeed'
p4850
S'need'
p4851
sS'monteal'
p4852
S'montreal'
p4853
sS'witht'
p4854
S'with'
p4855
sS'hourssss'
p4856
S'hours'
p4857
sS'freezin'
p4858
S'freezing'
p4859
sS'ksoo'
p4860
S'kiss'
p4861
sS'iness'
p4862
S'wines'
p4863
sS'daysz'
p4864
S'days'
p4865
sS'vids'
p4866
S'videos'
p4867
sS'fiending'
p4868
S'finding'
p4869
sS'shoutt'
p4870
S'shout'
p4871
sS"go's"
p4872
S'goes'
p4873
sS'dayss'
p4874
S'days'
p4875
sS'thye'
p4876
S'they'
p4877
sS'roc'
p4878
S'rock'
p4879
sS'awhhhh'
p4880
S'ah'
p4881
sS'reapair'
p4882
S'repair'
p4883
sS'sec'
p4884
S'second'
p4885
sS'cultura'
p4886
S'cultural'
p4887
sS'arh'
p4888
S'art'
p4889
sS'sem'
p4890
S'semester'
p4891
sS'prayin'
p4892
S'praying'
p4893
sS'freekinq'
p4894
S'freaking'
p4895
sS'dumi'
p4896
S'dumb'
p4897
sS'botherin'
p4898
S'bothering'
p4899
sS'movin'
p4900
S'moving'
p4901
sS'wkend'
p4902
S'weekend'
p4903
sS'wot'
p4904
S'what'
p4905
sS'grindin'
p4906
S'grinding'
p4907
sS'rideee'
p4908
S'ride'
p4909
sS'meeeeee'
p4910
S'me'
p4911
sS'thongs'
p4912
S'things'
p4913
sS'pn'
p4914
S'on'
p4915
sS'rite'
p4916
S'right'
p4917
sS'plumba'
p4918
S'plumb'
p4919
sS'deim'
p4920
S'they'
p4921
sS'effer'
p4922
S'offer'
p4923
sS'purps'
p4924
S'purpose'
p4925
sS'recentlu'
p4926
S'recently'
p4927
sS'uur'
p4928
S'your'
p4929
sS'bloggg'
p4930
S'blog'
p4931
sS'2moro'
p4932
S'tomorrow'
p4933
sS'razones'
p4934
S'reasons'
p4935
sS'atrt'
p4936
S'art'
p4937
sS'soljas'
p4938
S'soliders'
p4939
sS'kiddiing'
p4940
S'kidding'
p4941
sS'fuckas'
p4942
S'fuckers'
p4943
sS'callllllllll'
p4944
S'call'
p4945
sS'effen'
p4946
S'fucking'
p4947
sS'whaht'
p4948
S'what'
p4949
sS'breakie'
p4950
S'break'
p4951
sS'c'
p4952
S'see'
p4953
sS'anniv'
p4954
S'anniversary'
p4955
sS'baybee'
p4956
S'baby'
p4957
sS'pdx'
p4958
S'paradox'
p4959
sS'thou'
p4960
S'though'
p4961
sS'thot'
p4962
S'thought'
p4963
sS'breakin'
p4964
S'breaking'
p4965
sS'thoo'
p4966
S'though'
p4967
sS'oovoo'
p4968
S'obviously'
p4969
sS'bots'
p4970
S'boots'
p4971
sS'funtional'
p4972
S'functional'
p4973
sS'botu'
p4974
S'about'
p4975
sS'hiar'
p4976
S'hair'
p4977
sS'shal'
p4978
S'shall'
p4979
sS'2nyt'
p4980
S'tonight'
p4981
sS'xxxxxxxxxxxxxxx'
p4982
S'kiss'
p4983
sS'seleseeee'
p4984
S'sales'
p4985
sS'fucin'
p4986
S'fucking'
p4987
sS'loveee'
p4988
S'love'
p4989
sS'nvr'
p4990
S'never'
p4991
sS'wen'
p4992
S'when'
p4993
sS'diqits'
p4994
S'digits'
p4995
sS'qlass'
p4996
S'glass'
p4997
sS'stoped'
p4998
S'stopped'
p4999
sS'pessoal'
p5000
S'personal'
p5001
sS'crassie'
p5002
S'crazy'
p5003
sS'liatla'
p5004
S'little'
p5005
sS'tgl'
p5006
S'toggle'
p5007
sS'hiam'
p5008
S'him'
p5009
sS'dum'
p5010
S'dumb'
p5011
sS'dun'
p5012
S"don't"
p5013
sS'ntar'
p5014
S'near'
p5015
sS'bcos'
p5016
S'because'
p5017
sS'fabolous'
p5018
S'fabulous'
p5019
sS'enuff'
p5020
S'enough'
p5021
sS'whol'
p5022
S'whole'
p5023
sS'buisness'
p5024
S'business'
p5025
sS'dident'
p5026
S"didn't"
p5027
sS'stuntin'
p5028
S'stunting'
p5029
sS'pd'
p5030
S'paid'
p5031
sS'b0y'
p5032
S'boy'
p5033
sS"husbond's"
p5034
S"husband's"
p5035
sS'swt'
p5036
S'sweet'
p5037
sS'pl'
p5038
S'people'
p5039
sS'firl'
p5040
S'girl'
p5041
sS'anythin'
p5042
S'anything'
p5043
sS'bitchs'
p5044
S'bitches'
p5045
sS'vacay'
p5046
S'vacation'
p5047
sS'gaw'
p5048
S'god'
p5049
sS'yoself'
p5050
S'yourself'
p5051
sS'funy'
p5052
S'funny'
p5053
sS'ytday'
p5054
S'yesterday'
p5055
sS'effektive'
p5056
S'effective'
p5057
sS'grillz'
p5058
S'grills'
p5059
sS'appearantly'
p5060
S'apparently'
p5061
sS'gam'
p5062
S'game'
p5063
sS'websi'
p5064
S'website'
p5065
sS'insiderr'
p5066
S'insider'
p5067
sS'cummin'
p5068
S'common'
p5069
sS'funn'
p5070
S'fun'
p5071
sS'funi'
p5072
S'funny'
p5073
sS'bitchh'
p5074
S'bitch'
p5075
sS'moreee'
p5076
S'more'
p5077
sS'acount'
p5078
S'account'
p5079
sS'sweetiing'
p5080
S'sweeting'
p5081
sS'hearin'
p5082
S'hearing'
p5083
sS'fuq'
p5084
S'fuck'
p5085
sS'projekt'
p5086
S'project'
p5087
sS'convo'
p5088
S'conversation'
p5089
sS'seee'
p5090
S'see'
p5091
sS'fux'
p5092
S'fix'
p5093
sS'heya'
p5094
S'hey'
p5095
sS'juicyyy'
p5096
S'juicy'
p5097
sS'riiiiight'
p5098
S'right'
p5099
sS'fuc'
p5100
S'fuck'
p5101
sS'heyy'
p5102
S'hey'
p5103
sS'unbeilevable'
p5104
S'unbelievable'
p5105
sS'fuk'
p5106
S'fuck'
p5107
sS'fuh'
p5108
S'for'
p5109
sS'currentl'
p5110
S'currently'
p5111
sS'pryr'
p5112
S'prayer'
p5113
sS'thankies'
p5114
S'thanks'
p5115
sS'vol'
p5116
S'volume'
p5117
sS'vom'
p5118
S'volume'
p5119
sS'peacerzzz'
p5120
S'peace'
p5121
sS'gangstas'
p5122
S'gangsters'
p5123
sS'engg'
p5124
S'engineering'
p5125
sS'sweatin'
p5126
S'sweating'
p5127
sS'mandoo'
p5128
S'manhood'
p5129
sS'calender'
p5130
S'calendar'
p5131
sS'xtra'
p5132
S'extra'
p5133
sS'evaaaaaaaa'
p5134
S'ever'
p5135
sS'thngsz'
p5136
S'things'
p5137
sS'livin'
p5138
S'living'
p5139
sS'peoplee'
p5140
S'people'
p5141
sS'mins'
p5142
S'minutes'
p5143
sS'pyjamas'
p5144
S'pajamas'
p5145
sS'shat'
p5146
S'chat'
p5147
sS'finnally'
p5148
S'finally'
p5149
sS'smokn'
p5150
S'smoking'
p5151
sS'urself'
p5152
S'yourself'
p5153
sS'attackiert'
p5154
S'autocrat'
p5155
sS'knoe'
p5156
S'know'
p5157
sS'some1'
p5158
S'someone'
p5159
sS'eatin'
p5160
S'eating'
p5161
sS'funni'
p5162
S'funny'
p5163
sS'wierd'
p5164
S'weird'
p5165
sS'somethinggg'
p5166
S'something'
p5167
sS'funnn'
p5168
S'fun'
p5169
sS'qirl'
p5170
S'girl'
p5171
sS'stilettoz'
p5172
S'stilettos'
p5173
sS'kn0'
p5174
S'know'
p5175
sS'syg'
p5176
S'saying'
p5177
sS'thatz'
p5178
S"that's"
p5179
sS'husbandd'
p5180
S'husband'
p5181
sS'txtin'
p5182
S'texting'
p5183
sS'illest'
p5184
S'list'
p5185
sS'optin'
p5186
S'option'
p5187
sS'mov'
p5188
S'move'
p5189
sS'essences'
p5190
S'essence'
p5191
sS'ustream'
p5192
S'upstream'
p5193
sS'stdnts'
p5194
S'students'
p5195
sS'gtng'
p5196
S'getting'
p5197
sS'levelz'
p5198
S'levels'
p5199
sS'possesion'
p5200
S'possession'
p5201
sS'xmass'
p5202
S'christmas'
p5203
sS'soooooooooo'
p5204
S'so'
p5205
sS'hows'
p5206
S"how's"
p5207
sS'howw'
p5208
S'how'
p5209
sS'mobb'
p5210
S'mob'
p5211
sS'tomorrw'
p5212
S'tomorrow'
p5213
sS'loveees'
p5214
S'loves'
p5215
sS'ypu'
p5216
S'you'
p5217
sS'schhool'
p5218
S'school'
p5219
sS'cheep'
p5220
S'cheap'
p5221
sS'flippin'
p5222
S'flipping'
p5223
sS'somee'
p5224
S'some'
p5225
sS'gawds'
p5226
S'gods'
p5227
sS'knt'
p5228
S'cant'
p5229
sS'loveeee'
p5230
S'love'
p5231
sS'everythin'
p5232
S'everything'
p5233
sS'h0me'
p5234
S'home'
p5235
sS'charries'
p5236
S'carries'
p5237
sS'coup'
p5238
S'couple'
p5239
sS'cous'
p5240
S'because'
p5241
sS'bxtch'
p5242
S'bitch'
p5243
sS'haaaaapppy'
p5244
S'happy'
p5245
sS"nat'l"
p5246
S'national'
p5247
sS'theee'
p5248
S'the'
p5249
sS'komplett'
p5250
S'complete'
p5251
sS'xcellent'
p5252
S'excellent'
p5253
sS'lds'
p5254
S'ladies'
p5255
sS'libs'
p5256
S'liberals'
p5257
sS'soooooooooooo'
p5258
S'so'
p5259
sS'wid'
p5260
S'with'
p5261
sS'yeeeeeeeeees'
p5262
S'yes'
p5263
sS'anythiinq'
p5264
S'anything'
p5265
sS'rchd'
p5266
S'reached'
p5267
sS'clubbin'
p5268
S'clubbing'
p5269
sS'dhaa'
p5270
S'the'
p5271
sS'cus'
p5272
S'because'
p5273
sS'cuz'
p5274
S'because'
p5275
sS'wrbl'
p5276
S'workable'
p5277
sS'dhas'
p5278
S"that's"
p5279
sS'havin'
p5280
S'having'
p5281
sS'texxt'
p5282
S'text'
p5283
sS'cud'
p5284
S'could'
p5285
sS'onlyy'
p5286
S'only'
p5287
sS'soooooo'
p5288
S'so'
p5289
sS'dhat'
p5290
S'that'
p5291
sS'cum'
p5292
S'come'
p5293
sS"cum'ing"
p5294
S'coming'
p5295
sS'cuh'
p5296
S'cut'
p5297
sS'miama'
p5298
S'miami'
p5299
sS'gosshh'
p5300
S'gosh'
p5301
sS'thrus'
p5302
S'thursday'
p5303
sS'ight'
p5304
S'alright'
p5305
sS'conformei'
p5306
S'conformed'
p5307
sS'bii'
p5308
S'bye'
p5309
sS'queso'
p5310
S'quest'
p5311
sS'sittin'
p5312
S'sitting'
p5313
sS'emergi'
p5314
S'emerging'
p5315
sS'philos'
p5316
S'philosophy'
p5317
sS'biz'
p5318
S'business'
p5319
sS'ciencias'
p5320
S'sciences'
p5321
sS'wih'
p5322
S'with'
p5323
sS'fomat'
p5324
S'format'
p5325
sS'heeey'
p5326
S'hey'
p5327
sS'vere'
p5328
S'very'
p5329
sS'mornin'
p5330
S'morning'
p5331
sS'seperate'
p5332
S'separate'
p5333
sS'wiv'
p5334
S'with'
p5335
sS'ardware'
p5336
S'hardware'
p5337
sS'followw'
p5338
S'follow'
p5339
sS'olso'
p5340
S'also'
p5341
sS'stoppin'
p5342
S'stopping'
p5343
sS'tuu'
p5344
S'to'
p5345
sS'een'
p5346
S'been'
p5347
sS'staan'
p5348
S'stan'
p5349
sS'swimmig'
p5350
S'swimming'
p5351
sS'christmassy'
p5352
S'christmas'
p5353
sS'ckck'
p5354
S'cock'
p5355
sS'selebi'
p5356
S'celebrate'
p5357
sS'whens'
p5358
S"when's"
p5359
sS'mighti'
p5360
S'might'
p5361
sS'bacc'
p5362
S'back'
p5363
sS'liein'
p5364
S'lying'
p5365
sS'babii'
p5366
S'baby'
p5367
sS'oo2'
p5368
S'to'
p5369
sS'metres'
p5370
S'meters'
p5371
sS'b4'
p5372
S'before'
p5373
sS'theyre'
p5374
S"they're"
p5375
sS'chanqe'
p5376
S'change'
p5377
sS'mightt'
p5378
S'might'
p5379
sS'onnnn'
p5380
S'on'
p5381
sS'trendz'
p5382
S'trends'
p5383
sS'kasih'
p5384
S'kiss'
p5385
sS'fuckinq'
p5386
S'fucking'
p5387
sS'yooou'
p5388
S'you'
p5389
sS'saay'
p5390
S'say'
p5391
sS'prov'
p5392
S'prove'
p5393
sS'exec'
p5394
S'executive'
p5395
sS'meds'
p5396
S'medicines'
p5397
sS'phne'
p5398
S'phone'
p5399
sS'waaankersssss'
p5400
S'wankers'
p5401
sS'practicin'
p5402
S'practicing'
p5403
sS'prof'
p5404
S'professional'
p5405
sS'lappy'
p5406
S'laptop'
p5407
sS'prob'
p5408
S'probably'
p5409
sS"ppl's"
p5410
S'peoples'
p5411
sS'akward'
p5412
S'awkward'
p5413
sS'chargin'
p5414
S'charging'
p5415
sS'goooooo'
p5416
S'go'
p5417
sS'bg'
p5418
S'big'
p5419
sS'bb'
p5420
S'baby'
p5421
sS'bc'
p5422
S'because'
p5423
sS'gome'
p5424
S'gone'
p5425
sS'goooood'
p5426
S'good'
p5427
sS'bn'
p5428
S'been'
p5429
sS'buzin'
p5430
S'basin'
p5431
sS'bi'
p5432
S'be'
p5433
sS'bk'
p5434
S'back'
p5435
sS'bt'
p5436
S'but'
p5437
sS'addiquate'
p5438
S'adequate'
p5439
sS'eatinq'
p5440
S'eating'
p5441
sS'annivs'
p5442
S'anniversaries'
p5443
sS'uysualy'
p5444
S'usually'
p5445
sS'favvvvvvvvorite'
p5446
S'favorite'
p5447
sS'som1'
p5448
S'someone'
p5449
sS'bx'
p5450
S'box'
p5451
sS'mamita'
p5452
S'mommy'
p5453
sS'plelase'
p5454
S'please'
p5455
sS'wouldnt'
p5456
S"wouldn't"
p5457
sS'ckuz'
p5458
S'because'
p5459
sS'virgiin'
p5460
S'virgin'
p5461
sS'searchin'
p5462
S'searching'
p5463
sS'yehh'
p5464
S'yeah'
p5465
sS'poples'
p5466
S'peoples'
p5467
sS'aqaiin'
p5468
S'again'
p5469
sS'worldddd'
p5470
S'world'
p5471
sS'swea'
p5472
S'swear'
p5473
sS'blocc'
p5474
S'block'
p5475
sS'justt'
p5476
S'just'
p5477
sS'kaw'
p5478
S'really'
p5479
sS"b'day"
p5480
S'birthday'
p5481
sS'sh'
p5482
S'shit'
p5483
sS'every1'
p5484
S'everyone'
p5485
sS'showcse'
p5486
S'showcase'
p5487
sS'nsn'
p5488
S'non'
p5489
sS'dooown'
p5490
S'down'
p5491
sS'intl'
p5492
S'international'
p5493
sS'alrdy'
p5494
S'already'
p5495
sS'defult'
p5496
S'default'
p5497
sS'damnnnnn'
p5498
S'damn'
p5499
sS'watt'
p5500
S'what'
p5501
sS'intv'
p5502
S'interview'
p5503
sS'loove'
p5504
S'love'
p5505
sS'gerl'
p5506
S'girl'
p5507
sS'intr'
p5508
S'introduction'
p5509
sS'replacedd'
p5510
S'replaced'
p5511
sS'frikn'
p5512
S'foregone'
p5513
sS'pleaseeee'
p5514
S'please'
p5515
sS'mke'
p5516
S'make'
p5517
sS'4rm'
p5518
S'from'
p5519
sS'queeen'
p5520
S'queen'
p5521
sS'bruv'
p5522
S'brave'
p5523
sS'suin'
p5524
S'suing'
p5525
sS'spaz'
p5526
S'space'
p5527
sS'vce'
p5528
S'vice'
p5529
sS'mkt'
p5530
S'market'
p5531
sS'trad'
p5532
S'trade'
p5533
sS'lonq'
p5534
S'long'
p5535
sS'todas'
p5536
S'todays'
p5537
sS'yeahhhh'
p5538
S'yeah'
p5539
sS'perv'
p5540
S'pervert'
p5541
sS'gettn'
p5542
S'getting'
p5543
sS'wonderinf'
p5544
S'wondering'
p5545
sS'ballinnnn'
p5546
S'ballin'
p5547
sS'serie'
p5548
S'series'
p5549
sS'pwd'
p5550
S'powered'
p5551
sS'wnt'
p5552
S'want'
p5553
sS'embarassed'
p5554
S'embarrassed'
p5555
sS'taday'
p5556
S'today'
p5557
sS'boyy'
p5558
S'boy'
p5559
sS'dancinnn'
p5560
S'dancing'
p5561
sS'peepee'
p5562
S'pee'
p5563
sS'planed'
p5564
S'planned'
p5565
sS'fics'
p5566
S'fits'
p5567
sS'geting'
p5568
S'getting'
p5569
sS'cig'
p5570
S'cigarette'
p5571
sS'impt'
p5572
S'important'
p5573
sS'snding'
p5574
S'sending'
p5575
sS'doiinq'
p5576
S'doing'
p5577
sS'frnd'
p5578
S'friend'
p5579
sS'whaaaaat'
p5580
S'what'
p5581
sS'prep'
p5582
S'prepare'
p5583
sS'carefull'
p5584
S'careful'
p5585
sS'shitttttttt'
p5586
S'shit'
p5587
sS'uo'
p5588
S'do'
p5589
sS'cit'
p5590
S'city'
p5591
sS'joyyyyyy'
p5592
S'joy'
p5593
sS'chiclit'
p5594
S'chocolate'
p5595
sS'tpm'
p5596
S'tom'
p5597
sS'doiing'
p5598
S'doing'
p5599
sS'shes'
p5600
S"she's"
p5601
sS'iceee'
p5602
S'ice'
p5603
sS'tmrrw'
p5604
S'tomorrow'
p5605
sS'fckin'
p5606
S'fucking'
p5607
sS'wich'
p5608
S'which'
p5609
sS'twitta'
p5610
S'twitter'
p5611
sS'biznis'
p5612
S'business'
p5613
sS'doesn'
p5614
S"doesn't"
p5615
sS'comming'
p5616
S'coming'
p5617
sS'tiyad'
p5618
S'tired'
p5619
sS'kkkkk'
p5620
S'ok'
p5621
sS'chav'
p5622
S'champion'
p5623
sS'tyme'
p5624
S'time'
p5625
sS'basterds'
p5626
S'bastards'
p5627
sS'lyk'
p5628
S'like'
p5629
sS'tite'
p5630
S'tight'
p5631
sS'grt'
p5632
S'great'
p5633
sS'stadion'
p5634
S'stadium'
p5635
sS'tink'
p5636
S'think'
p5637
sS'fffffrrrrrresh'
p5638
S'fresh'
p5639
sS'btwn'
p5640
S'between'
p5641
sS'nah'
p5642
S'no'
p5643
sS'accross'
p5644
S'across'
p5645
sS'nuthn'
p5646
S'nothing'
p5647
sS'exelente'
p5648
S'excellent'
p5649
sS'backk'
p5650
S'back'
p5651
sS'slippin'
p5652
S'slipping'
p5653
sS'organise'
p5654
S'organize'
p5655
sS'grl'
p5656
S'girl'
p5657
sS'friggen'
p5658
S'freaking'
p5659
sS'pulease'
p5660
S'please'
p5661
sS'beatiful'
p5662
S'beautiful'
p5663
sS'everybodyy'
p5664
S'everybody'
p5665
sS'evap'
p5666
S'evaporation'
p5667
sS'missin'
p5668
S'missing'
p5669
sS'goooooood'
p5670
S'good'
p5671
sS'iigght'
p5672
S'alright'
p5673
sS'ooooooh'
p5674
S'oh'
p5675
sS'problemo'
p5676
S'problem'
p5677
sS'developp'
p5678
S'develop'
p5679
sS'bonding'
p5680
S'bounding'
p5681
sS'congrads'
p5682
S'congratulations'
p5683
sS'flowin'
p5684
S'flowing'
p5685
sS'nevah'
p5686
S'never'
p5687
sS'bcoz'
p5688
S'because'
p5689
sS'agn'
p5690
S'again'
p5691
sS'tryin'
p5692
S'trying'
p5693
sS'hellz'
p5694
S'hell'
p5695
sS'stressin'
p5696
S'stressing'
p5697
sS'tmw'
p5698
S'tomorrow'
p5699
sS"2day's"
p5700
S"today's"
p5701
sS'svc'
p5702
S'service'
p5703
sS'gr8'
p5704
S'great'
p5705
sS'hurah'
p5706
S'hurrah'
p5707
sS'cribb'
p5708
S'crib'
p5709
sS'whne'
p5710
S'when'
p5711
sS'incl'
p5712
S'including'
p5713
sS'kickin'
p5714
S'kicking'
p5715
sS'ffam'
p5716
S'family'
p5717
sS'noooooooo'
p5718
S'no'
p5719
sS'funcs'
p5720
S'functions'
p5721
sS'gv'
p5722
S'give'
p5723
sS'gt'
p5724
S'get'
p5725
sS'edg'
p5726
S'edge'
p5727
sS'meeeeeeeeeeeeeeeeeeeeeee'
p5728
S'me'
p5729
sS'trife'
p5730
S'tribe'
p5731
sS'yearrssss'
p5732
S'years'
p5733
sS'schemin'
p5734
S'scheming'
p5735
sS'noobs'
p5736
S'nooks'
p5737
sS'gf'
p5738
S'girlfriend'
p5739
sS'gd'
p5740
S'good'
p5741
sS'freakin'
p5742
S'freaking'
p5743
sS'fforecast'
p5744
S'forecast'
p5745
sS'gn'
p5746
S'going'
p5747
sS'repersent'
p5748
S'represent'
p5749
sS'chillin'
p5750
S'chilling'
p5751
sS'networ'
p5752
S'network'
p5753
sS'helpn'
p5754
S'helping'
p5755
sS'lke'
p5756
S'like'
p5757
sS'becau'
p5758
S'because'
p5759
sS'laffin'
p5760
S'laughing'
p5761
sS'inqle'
p5762
S'single'
p5763
sS'krismas'
p5764
S'christmas'
p5765
sS'telln'
p5766
S'telling'
p5767
sS'mouf'
p5768
S'mouth'
p5769
sS'g0'
p5770
S'go'
p5771
sS'happend'
p5772
S'happened'
p5773
sS'slapin'
p5774
S'slapping'
p5775
sS'twee'
p5776
S'twitter'
p5777
sS'qiant'
p5778
S'giant'
p5779
sS'maan'
p5780
S'man'
p5781
sS'niqqz'
p5782
S'niggas'
p5783
sS'answr'
p5784
S'answer'
p5785
sS'passin'
p5786
S'passing'
p5787
sS'niightt'
p5788
S'night'
p5789
sS'looooove'
p5790
S'love'
p5791
sS'bonitas'
p5792
S'pretty'
p5793
sS'legos'
p5794
S'legs'
p5795
sS'anotha'
p5796
S'another'
p5797
sS'trm'
p5798
S'term'
p5799
sS'evn'
p5800
S'even'
p5801
sS'tra'
p5802
S'try'
p5803
sS'eva'
p5804
S'ever'
p5805
sS'gettin'
p5806
S'getting'
p5807
sS'gettij'
p5808
S'getting'
p5809
sS'anothr'
p5810
S'another'
p5811
sS'chompin'
p5812
S'champion'
p5813
sS'youuu'
p5814
S'you'
p5815
sS'evr'
p5816
S'ever'
p5817
sS'whoevers'
p5818
S"whoever's"
p5819
sS'decepticon'
p5820
S'deception'
p5821
sS'urithra'
p5822
S'urethra'
p5823
sS'pleas'
p5824
S'please'
p5825
sS'fubus'
p5826
S'fabulous'
p5827
sS'vetera'
p5828
S'veterans'
p5829
sS'lovelyy'
p5830
S'lovely'
p5831
sS"you'l"
p5832
S"you'll"
p5833
sS'luvvin'
p5834
S'loving'
p5835
sS'spoonin'
p5836
S'spooning'
p5837
sS'payin'
p5838
S'paying'
p5839
sS'kiess'
p5840
S'kiss'
p5841
sS'wilst'
p5842
S'will'
p5843
sS'frenemy'
p5844
S'enemy'
p5845
sS'waitinq'
p5846
S'waiting'
p5847
sS'compas'
p5848
S'compass'
p5849
sS'3s'
p5850
S'threes'
p5851
sS'twinn'
p5852
S'twin'
p5853
sS'urss'
p5854
S'yours'
p5855
sS'dolie'
p5856
S'dole'
p5857
sS'ditchin'
p5858
S'ditching'
p5859
sS'evrywhr'
p5860
S'everywhere'
p5861
sS'homeee'
p5862
S'home'
p5863
sS'anther'
p5864
S'another'
p5865
sS'cleanin'
p5866
S'cleaning'
p5867
sS'compan'
p5868
S'company'
p5869
sS'waiiiit'
p5870
S'wait'
p5871
sS'sux'
p5872
S'sucks'
p5873
sS'pizaid'
p5874
S'pissed'
p5875
sS'pleaseeeeeee'
p5876
S'please'
p5877
sS'taufik'
p5878
S'traffic'
p5879
sS'bcause'
p5880
S'because'
p5881
sS'follwers'
p5882
S'followers'
p5883
sS'spaazzz'
p5884
S'spaces'
p5885
sS'desiree'
p5886
S'desire'
p5887
sS'mkay'
p5888
S'okay'
p5889
sS'explora'
p5890
S'explorer'
p5891
sS'redi'
p5892
S'ready'
p5893
sS'thia'
p5894
S'this'
p5895
sS'nites'
p5896
S'nights'
p5897
sS'maken'
p5898
S'make'
p5899
sS'2moz'
p5900
S'tomorrow'
p5901
sS'convers'
p5902
S'conversion'
p5903
sS'poptus'
p5904
S'puppets'
p5905
sS'didnt'
p5906
S"didn't"
p5907
sS'makee'
p5908
S'make'
p5909
sS'rdy'
p5910
S'ready'
p5911
sS'memba'
p5912
S'remember'
p5913
sS'oficial'
p5914
S'official'
p5915
sS'cert'
p5916
S'certain'
p5917
sS'nitee'
p5918
S'night'
p5919
sS'thatt'
p5920
S'that'
p5921
sS'wos'
p5922
S'was'
p5923
sS'fuked'
p5924
S'fucked'
p5925
sS'foooooor'
p5926
S'for'
p5927
sS'thats'
p5928
S"that's"
p5929
sS'wif'
p5930
S'with'
p5931
sS'altho'
p5932
S'although'
p5933
sS'mannn'
p5934
S'man'
p5935
sS'wheelchr'
p5936
S'wheelchair'
p5937
sS'apr'
p5938
S'april'
p5939
sS'redz'
p5940
S'reds'
p5941
sS'app'
p5942
S'application'
p5943
sS'trickin'
p5944
S'tricking'
p5945
sS'dateng'
p5946
S'dating'
p5947
sS'raachel'
p5948
S'rachel'
p5949
sS'mannz'
p5950
S'man'
p5951
sS'wit'
p5952
S'with'
p5953
sS'wil'
p5954
S'will'
p5955
sS'gaurd'
p5956
S'guard'
p5957
sS'dosent'
p5958
S"doesn't"
p5959
sS'cha'
p5960
S'you'
p5961
sS'shiz'
p5962
S'shit'
p5963
sS'dstroy'
p5964
S'destroy'
p5965
sS'feb'
p5966
S'february'
p5967
sS"love'ss"
p5968
S'loves'
p5969
sS'rdg'
p5970
S'riding'
p5971
sS'chk'
p5972
S'check'
p5973
sS'piccys'
p5974
S'pictures'
p5975
sS'craz'
p5976
S'crazy'
p5977
sS'priniting'
p5978
S'printing'
p5979
sS'okaaaay'
p5980
S'okay'
p5981
sS'gers'
p5982
S'girls'
p5983
sS'y3a'
p5984
S'yeah'
p5985
sS'uss'
p5986
S'us'
p5987
sS'chu'
p5988
S'you'
p5989
sS'yummm'
p5990
S'yummy'
p5991
sS'quesadillas'
p5992
S'castles'
p5993
sS'luvin'
p5994
S'loving'
p5995
sS'zim'
p5996
S'zimbabwe'
p5997
sS'eeven'
p5998
S'even'
p5999
sS'siirrrr'
p6000
S'sir'
p6001
sS'txts'
p6002
S'texts'
p6003
sS'iit'
p6004
S'it'
p6005
sS'iis'
p6006
S'is'
p6007
sS'babi'
p6008
S'baby'
p6009
sS'dayyyy'
p6010
S'day'
p6011
sS'uumm'
p6012
S'um'
p6013
sS'soooooooo'
p6014
S'so'
p6015
sS'iif'
p6016
S'if'
p6017
sS'absolotuely'
p6018
S'absolutely'
p6019
sS'losin'
p6020
S'losing'
p6021
sS'heii'
p6022
S'hi'
p6023
sS'actualy'
p6024
S'actually'
p6025
sS'iin'
p6026
S'in'
p6027
sS'thiz'
p6028
S'this'
p6029
sS'meeh'
p6030
S'me'
p6031
sS'wearin'
p6032
S'wearing'
p6033
sS'meee'
p6034
S'me'
p6035
sS'chinse'
p6036
S'chinese'
p6037
sS'withe'
p6038
S'with'
p6039
sS'dloaded'
p6040
S'downloaded'
p6041
sS'aktiviti'
p6042
S'activity'
p6043
sS'dropz'
p6044
S'drops'
p6045
sS'dlls'
p6046
S'dollars'
p6047
sS'twiter'
p6048
S'twitter'
p6049
sS'aight'
p6050
S'alright'
p6051
sS'affectin'
p6052
S'affecting'
p6053
sS'bareng'
p6054
S'bring'
p6055
sS'aweful'
p6056
S'awful'
p6057
sS'phon'
p6058
S'phone'
p6059
sS'tat'
p6060
S'that'
p6061
sS'wayyy'
p6062
S'way'
p6063
sS'yeaaaa'
p6064
S'yeah'
p6065
sS'waaaay'
p6066
S'way'
p6067
sS'dedicat'
p6068
S'dedicate'
p6069
sS'otha'
p6070
S'other'
p6071
sS'awesomee'
p6072
S'awesome'
p6073
sS'tay'
p6074
S'stay'
p6075
sS'riiiight'
p6076
S'right'
p6077
sS'hospiitall'
p6078
S'hospital'
p6079
sS'taa'
p6080
S'to'
p6081
sS'wowww'
p6082
S'wow'
p6083
sS'somethink'
p6084
S'something'
p6085
sS'chorizo'
p6086
S'chorus'
p6087
sS'laureeennnn'
p6088
S'lauren'
p6089
sS'cuteee'
p6090
S'cute'
p6091
sS'tak'
p6092
S'take'
p6093
sS'sis'
p6094
S'sister'
p6095
sS'dloading'
p6096
S'downloading'
p6097
sS'warez'
p6098
S'wares'
p6099
sS'belum'
p6100
S'plum'
p6101
sS'itss'
p6102
S'its'
p6103
sS'topin'
p6104
S'topic'
p6105
sS'qarbaqeeeeee'
p6106
S'garbage'
p6107
sS'yayyyyy'
p6108
S'yay'
p6109
sS'sif'
p6110
S'if'
p6111
sS'soooooooooooooo'
p6112
S'so'
p6113
sS'dwn'
p6114
S'down'
p6115
sS'gurl'
p6116
S'girl'
p6117
sS'slappin'
p6118
S'slapping'
p6119
sS'misss'
p6120
S'miss'
p6121
sS'hawt'
p6122
S'hot'
p6123
sS'profssnls'
p6124
S'professionals'
p6125
sS'shiiit'
p6126
S'shit'
p6127
sS's3lf'
p6128
S'self'
p6129
sS'evry'
p6130
S'every'
p6131
sS'saught'
p6132
S'taught'
p6133
sS'da'
p6134
S'the'
p6135
sS'oogie'
p6136
S'disgusting'
p6137
sS'somethin'
p6138
S'something'
p6139
sS'ittt'
p6140
S'it'
p6141
sS'congrast'
p6142
S'congrats'
p6143
sS'somethig'
p6144
S'something'
p6145
sS'folllow'
p6146
S'follow'
p6147
sS'tewday'
p6148
S'today'
p6149
sS'chasinn'
p6150
S'chasing'
p6151
sS'crazee'
p6152
S'crazy'
p6153
sS'positief'
p6154
S'positive'
p6155
sS'shoppin'
p6156
S'shopping'
p6157
sS'sayss'
p6158
S'says'
p6159
sS'governme'
p6160
S'government'
p6161
sS'ehem'
p6162
S'them'
p6163
sS'wildin'
p6164
S'wilding'
p6165
sS'classs'
p6166
S'class'
p6167
sS'enev'
p6168
S'envy'
p6169
sS'hunnie'
p6170
S'honey'
p6171
sS'standin'
p6172
S'standing'
p6173
sS'ws'
p6174
S'was'
p6175
sS'lookn'
p6176
S'looking'
p6177
sS'co0l'
p6178
S'cool'
p6179
sS'houswife'
p6180
S'housewife'
p6181
sS'dhis'
p6182
S'this'
p6183
sS'maaaan'
p6184
S'man'
p6185
sS'hwat'
p6186
S'what'
p6187
sS'bouaring'
p6188
S'boring'
p6189
sS'fuccin'
p6190
S'fucking'
p6191
sS'maaaae'
p6192
S'me'
p6193
sS'movs'
p6194
S'moves'
p6195
sS'smoove'
p6196
S'smooth'
p6197
sS'koad'
p6198
S'road'
p6199
sS'byt'
p6200
S'but'
p6201
sS'dancin'
p6202
S'dancing'
p6203
sS'csco'
p6204
S'cisco'
p6205
sS'lk'
p6206
S'like'
p6207
sS'lv'
p6208
S'love'
p6209
sS'senoko'
p6210
S'sneak'
p6211
sS'yahhh'
p6212
S'yeah'
p6213
sS'byk'
p6214
S'bike'
p6215
sS'hangingg'
p6216
S'hanging'
p6217
sS'loook'
p6218
S'look'
p6219
sS'buzziinx'
p6220
S'business'
p6221
sS'cannnnot'
p6222
S'cannot'
p6223
sS'cuss'
p6224
S'curse'
p6225
sS'youd'
p6226
S"you'd"
p6227
sS'cust'
p6228
S'customer'
p6229
sS'woww'
p6230
S'wow'
p6231
sS'docs'
p6232
S'doctors'
p6233
sS'nada'
p6234
S'nothing'
p6235
sS'catorce'
p6236
S'caters'
p6237
sS'gude'
p6238
S'guide'
p6239
sS'docu'
p6240
S'document'
p6241
sS'dat'
p6242
S'that'
p6243
sS'hurtttt'
p6244
S'hurt'
p6245
sS'cuse'
p6246
S'cause'
p6247
sS'daz'
p6248
S"that's"
p6249
sS'yuuup'
p6250
S'up'
p6251
sS'ecstacy'
p6252
S'ecstasy'
p6253
sS'mods'
p6254
S'modifications'
p6255
sS'motha'
p6256
S'mother'
p6257
sS'worldw'
p6258
S'world'
p6259
sS'phoneee'
p6260
S'phone'
p6261
sS'iiiis'
p6262
S'is'
p6263
sS'todaaay'
p6264
S'today'
p6265
sS'betta'
p6266
S'better'
p6267
sS'ohhhhhh'
p6268
S'oh'
p6269
sS'sommethingg'
p6270
S'something'
p6271
sS'billz'
p6272
S'bills'
p6273
sS'shrt'
p6274
S'short'
p6275
sS'phonne'
p6276
S'phone'
p6277
sS'gvmnt'
p6278
S'government'
p6279
sS'haev'
p6280
S'have'
p6281
sS'n0thin'
p6282
S'nothing'
p6283
sS'whtever'
p6284
S'whatever'
p6285
sS'l8'
p6286
S'late'
p6287
sS'skoo'
p6288
S'school'
p6289
sS'doinn'
p6290
S'doing'
p6291
sS'crunchhhhhh'
p6292
S'crunch'
p6293
sS'illuminati'
p6294
S'illuminate'
p6295
sS'orentation'
p6296
S'orientation'
p6297
sS'terus'
p6298
S'terms'
p6299
sS'mintues'
p6300
S'minutes'
p6301
sS'globa'
p6302
S'global'
p6303
sS'consum'
p6304
S'consumer'
p6305
sS'theraflu'
p6306
S'thoroughly'
p6307
sS'leavin'
p6308
S'leaving'
p6309
sS'siang'
p6310
S'sing'
p6311
sS'owt'
p6312
S'anything'
p6313
sS'gooodie'
p6314
S'good'
p6315
sS'hld'
p6316
S'hold'
p6317
sS'doinq'
p6318
S'doing'
p6319
sS'tendancies'
p6320
S'tendencies'
p6321
sS'shittin'
p6322
S'shitting'
p6323
sS'thinkinq'
p6324
S'thinking'
p6325
sS'res'
p6326
S'resolution'
p6327
sS'req'
p6328
S'request'
p6329
sS'stayin'
p6330
S'staying'
p6331
sS'happns'
p6332
S'happens'
p6333
sS'philipines'
p6334
S'philippines'
p6335
sS'rel'
p6336
S'real'
p6337
sS'max'
p6338
S'maximum'
p6339
sS'okey'
p6340
S'ok'
p6341
sS'plse'
p6342
S'please'
p6343
sS'thass'
p6344
S'thats'
p6345
sS'cause'
p6346
S'because'
p6347
sS'reg'
p6348
S'register'
p6349
sS'bac'
p6350
S'back'
p6351
sS'pppplllleeaassee'
p6352
S'please'
p6353
sS'uppp'
p6354
S'up'
p6355
sS'paintin'
p6356
S'painting'
p6357
sS'usuing'
p6358
S'using'
p6359
sS'watever'
p6360
S'whatever'
p6361
sS'byeert'
p6362
S'bye'
p6363
sS'shhhiiitttt'
p6364
S'shit'
p6365
sS'shud'
p6366
S'should'
p6367
sS'ect'
p6368
S'etc'
p6369
sS'waiittin'
p6370
S'waiting'
p6371
sS'releas'
p6372
S'release'
p6373
sS'okkk'
p6374
S'ok'
p6375
sS'studyin'
p6376
S'studying'
p6377
sS'slackkkkkk'
p6378
S'slack'
p6379
sS'mehn'
p6380
S'men'
p6381
sS'suny'
p6382
S'sunny'
p6383
sS'chilli'
p6384
S'chili'
p6385
sS'hunny'
p6386
S'honey'
p6387
sS'chilll'
p6388
S'chill'
p6389
sS'chilln'
p6390
S'chilling'
p6391
sS'trainin'
p6392
S'training'
p6393
sS'somthin'
p6394
S'something'
p6395
sS'soonnerr'
p6396
S'sooner'
p6397
sS'bak'
p6398
S'back'
p6399
sS'superrrr'
p6400
S'super'
p6401
sS'hunni'
p6402
S'honey'
p6403
sS'keek'
p6404
S'keep'
p6405
sS'ltd'
p6406
S'limited'
p6407
sS'timee'
p6408
S'time'
p6409
sS'annoyin'
p6410
S'annoying'
p6411
sS'cristian'
p6412
S'christian'
p6413
sS'rting'
p6414
S'writing'
p6415
sS'dickin'
p6416
S'dicking'
p6417
sS'possstttt'
p6418
S'post'
p6419
sS'0neee'
p6420
S'one'
p6421
sS'wannt'
p6422
S'want'
p6423
sS'throug'
p6424
S'through'
p6425
sS'iht'
p6426
S'it'
p6427
sS"pee'd"
p6428
S'peed'
p6429
sS'twat'
p6430
S'that'
p6431
sS'nigggga'
p6432
S'nigga'
p6433
sS'mah'
p6434
S'my'
p6435
sS'ses'
p6436
S'uses'
p6437
sS'enjoyin'
p6438
S'enjoying'
p6439
sS'justins'
p6440
S"justin's"
p6441
sS'righ'
p6442
S'right'
p6443
sS'donte'
p6444
S'done'
p6445
sS'ttack'
p6446
S'attack'
p6447
sS'gratuitos'
p6448
S'gratuitous'
p6449
sS'yeaaaaaaaaah'
p6450
S'yeah'
p6451
sS'thiss'
p6452
S'this'
p6453
sS'laddieeeeeessssssss'
p6454
S'ladies'
p6455
sS'motorcy'
p6456
S'motorcycle'
p6457
sS'noooooo'
p6458
S'no'
p6459
sS'blaminin'
p6460
S'blaming'
p6461
sS'hoooome'
p6462
S'home'
p6463
sS'sian'
p6464
S'sign'
p6465
sS'cuzzo'
p6466
S'cousin'
p6467
sS'boii'
p6468
S'boy'
p6469
sS'be4'
p6470
S'before'
p6471
sS'blankie'
p6472
S'blanket'
p6473
sS'haves'
p6474
S'hates'
p6475
sS'nyam'
p6476
S'name'
p6477
sS'jugde'
p6478
S'judge'
p6479
sS'hldin'
p6480
S'holding'
p6481
sS'fckn'
p6482
S'fucking'
p6483
sS'findin'
p6484
S'finding'
p6485
sS'botol'
p6486
S'bottle'
p6487
sS'whaaa'
p6488
S'what'
p6489
sS'tlkin'
p6490
S'talking'
p6491
sS'havee'
p6492
S'have'
p6493
sS'boobie'
p6494
S'booby'
p6495
sS'sumthin'
p6496
S'something'
p6497
sS'feeels'
p6498
S'feels'
p6499
sS'yungest'
p6500
S'youngest'
p6501
sS'lovee'
p6502
S'love'
p6503
sS'recieve'
p6504
S'receive'
p6505
sS'beh'
p6506
S'be'
p6507
sS'bei'
p6508
S'buy'
p6509
sS'beb'
p6510
S'baby'
p6511
sS'borind'
p6512
S'boring'
p6513
sS'kushfast'
p6514
S'breakfast'
p6515
sS'bee'
p6516
S'be'
p6517
sS'num'
p6518
S'number'
p6519
sS'kissin'
p6520
S'kissing'
p6521
sS'ber'
p6522
S'before'
p6523
sS'ceme'
p6524
S'come'
p6525
sS'flaggin'
p6526
S'flagging'
p6527
sS'lovey'
p6528
S'love'
p6529
sS'lovex'
p6530
S'love'
p6531
sS'qeueing'
p6532
S'cuing'
p6533
sS'beter'
p6534
S'better'
p6535
sS'clit'
p6536
S'clitoris'
p6537
sS'developement'
p6538
S'development'
p6539
sS'piff'
p6540
S'puff'
p6541
sS'speachless'
p6542
S'speechless'
p6543
sS'beatin'
p6544
S'beating'
p6545
sS'fukn'
p6546
S'fucking'
p6547
sS'milion'
p6548
S'million'
p6549
sS'fukk'
p6550
S'fuck'
p6551
sS'maaaaaais'
p6552
S'mais'
p6553
sS'veryy'
p6554
S'very'
p6555
sS'beliebers'
p6556
S'believers'
p6557
sS'havn'
p6558
S'having'
p6559
sS'gayyy'
p6560
S'gay'
p6561
sS'condidtion'
p6562
S'condition'
p6563
sS'babee'
p6564
S'babe'
p6565
sS'boyyy'
p6566
S'boy'
p6567
sS'sooooooo'
p6568
S'so'
p6569
sS'liife'
p6570
S'life'
p6571
sS'millz'
p6572
S'mills'
p6573
sS'min'
p6574
S'minutes'
p6575
sS'suka'
p6576
S'suck'
p6577
sS'probly'
p6578
S'probably'
p6579
sS'mie'
p6580
S'my'
p6581
sS'babeh'
p6582
S'baby'
p6583
sS'congratz'
p6584
S'congrats'
p6585
sS'asgmnt'
p6586
S'assignment'
p6587
sS'miz'
p6588
S'mix'
p6589
sS'utd'
p6590
S'united'
p6591
sS'graduands'
p6592
S'gradients'
p6593
sS'seh'
p6594
S'say'
p6595
sS'biit'
p6596
S'bit'
p6597
sS"evrybody's"
p6598
S"everybody's"
p6599
sS'babez'
p6600
S'babes'
p6601
sS'girlies'
p6602
S'girls'
p6603
sS'whe'
p6604
S'we'
p6605
sS'tudio'
p6606
S'studio'
p6607
sS'jawns'
p6608
S'johns'
p6609
sS'habbo'
p6610
S'hobby'
p6611
sS'kurup'
p6612
S'group'
p6613
sS'lamee'
p6614
S'lame'
p6615
sS'whn'
p6616
S'when'
p6617
sS'spose'
p6618
S'suppose'
p6619
sS'sumwhr'
p6620
S'somewhere'
p6621
sS'donggg'
p6622
S'dong'
p6623
sS'whr'
p6624
S'where'
p6625
sS'sist'
p6626
S'sister'
p6627
sS'ryte'
p6628
S'right'
p6629
sS'monyh'
p6630
S'month'
p6631
sS'nigguh'
p6632
S'nigger'
p6633
sS'soo'
p6634
S'so'
p6635
sS'okaae'
p6636
S'okay'
p6637
sS'atracked'
p6638
S'attacked'
p6639
sS'bred'
p6640
S'bread'
p6641
sS'foooooood'
p6642
S'food'
p6643
sS'brea'
p6644
S'break'
p6645
sS'dawgs'
p6646
S'dogs'
p6647
sS'okaay'
p6648
S'okay'
p6649
sS'urs'
p6650
S'yours'
p6651
sS'urz'
p6652
S'yours'
p6653
sS'letsssss'
p6654
S'lets'
p6655
sS'likkle'
p6656
S'likely'
p6657
sS'vaccuum'
p6658
S'vacuum'
p6659
sS'kiddin'
p6660
S'kidding'
p6661
sS'lorne'
p6662
S'lone'
p6663
sS'nieuw'
p6664
S'new'
p6665
sS'likee'
p6666
S'like'
p6667
sS'basments'
p6668
S'basements'
p6669
sS'heeeeey'
p6670
S'hey'
p6671
sS'niqhtt'
p6672
S'night'
p6673
sS'shtted'
p6674
S'shouted'
p6675
sS'kayleb'
p6676
S'club'
p6677
sS'tryed'
p6678
S'tried'
p6679
sS'fxck'
p6680
S'fucking'
p6681
sS'pleasee'
p6682
S'please'
p6683
sS'2morrow'
p6684
S'tomorrow'
p6685
sS'lovesssss'
p6686
S'loves'
p6687
sS'datline'
p6688
S'deadline'
p6689
sS'blowin'
p6690
S'blowing'
p6691
sS'repuest'
p6692
S'request'
p6693
sS'hadd'
p6694
S'had'
p6695
sS'todaii'
p6696
S'today'
p6697
sS'amazingg'
p6698
S'amazing'
p6699
sS'controll'
p6700
S'control'
p6701
sS'envi'
p6702
S'envy'
p6703
sS'avai'
p6704
S'available'
p6705
sS'jag'
p6706
S'jaguar'
p6707
sS'girlie'
p6708
S'girl'
p6709
sS'jac'
p6710
S'jack'
p6711
sS'moddies'
p6712
S'modes'
p6713
sS'matress'
p6714
S'mattress'
p6715
sS'joind'
p6716
S'joined'
p6717
sS'lockin'
p6718
S'locking'
p6719
sS'godsped'
p6720
S'godspeed'
p6721
sS'workin'
p6722
S'working'
p6723
sS'onee'
p6724
S'one'
p6725
sS'wonderfull'
p6726
S'wonderful'
p6727
sS'props'
p6728
S'proposal'
p6729
sS'cr8te'
p6730
S'create'
p6731
sS'mgr'
p6732
S'manager'
p6733
sS'jamma'
p6734
S'jammer'
p6735
sS'arrivedd'
p6736
S'arrived'
p6737
sS'werent'
p6738
S"weren't"
p6739
sS'dodgy'
p6740
S'dodge'
p6741
sS'borin'
p6742
S'boring'
p6743
sS'wordz'
p6744
S'words'
p6745
sS'contemplatin'
p6746
S'contemplating'
p6747
sS'rlly'
p6748
S'really'
p6749
sS'sht'
p6750
S'shit'
p6751
sS'temp'
p6752
S'temporary'
p6753
sS'yeahhhhh'
p6754
S'yeah'
p6755
sS'truee'
p6756
S'true'
p6757
sS'jokies'
p6758
S'jokes'
p6759
sS'grat'
p6760
S'great'
p6761
sS'anouncment'
p6762
S'announcement'
p6763
sS'muh'
p6764
S'my'
p6765
sS'twiddlin'
p6766
S'twiddling'
p6767
sS'leadi'
p6768
S'leading'
p6769
sS'shd'
p6770
S'should'
p6771
sS'knoow'
p6772
S'know'
p6773
sS'neone'
p6774
S'anyone'
p6775
sS'watchin'
p6776
S'watching'
p6777
sS'qo'
p6778
S'go'
p6779
sS'sho'
p6780
S'show'
p6781
sS'musicc'
p6782
S'music'
p6783
sS'scanitly'
p6784
S'scantily'
p6785
sS'freinds'
p6786
S'friends'
p6787
sS'scaryyy'
p6788
S'scary'
p6789
sS'ideass'
p6790
S'ideas'
p6791
sS'koming'
p6792
S'coming'
p6793
sS'shuld'
p6794
S'should'
p6795
sS'madh'
p6796
S'mad'
p6797
sS'waching'
p6798
S'watching'
p6799
sS'kadut'
p6800
S'kidded'
p6801
sS'nowheree'
p6802
S'nowhere'
p6803
sS'doonnt'
p6804
S"don't"
p6805
sS'wun'
p6806
S"won't"
p6807
sS"rt'd"
p6808
S'retweeted'
p6809
sS'panto'
p6810
S'pants'
p6811
sS'wa'
p6812
S'was'
p6813
sS'luv'
p6814
S'love'
p6815
sS'moornin'
p6816
S'morning'
p6817
sS'wherre'
p6818
S'where'
p6819
sS'orderin'
p6820
S'ordering'
p6821
sS'donks'
p6822
S'donkeys'
p6823
sS'dll'
p6824
S'download'
p6825
sS'rubbin'
p6826
S'rubbing'
p6827
sS'enevolpes'
p6828
S'envelopes'
p6829
sS'ugggh'
p6830
S'ugh'
p6831
sS'pantz'
p6832
S'pants'
p6833
sS'exellent'
p6834
S'excellent'
p6835
sS'luh'
p6836
S'love'
p6837
sS'luk'
p6838
S'luck'
p6839
sS'youll'
p6840
S"you'll"
p6841
sS'playaa'
p6842
S'play'
p6843
sS'greatful'
p6844
S'grateful'
p6845
sS'xplain'
p6846
S'explain'
p6847
sS'addin'
p6848
S'adding'
p6849
sS'vry'
p6850
S'very'
p6851
sS'heariin'
p6852
S'hearing'
p6853
sS'jobbb'
p6854
S'job'
p6855
sS'rugrats'
p6856
S'regrets'
p6857
sS'yaaaaaaaaaaaaaa'
p6858
S'yes'
p6859
sS'biasa'
p6860
S'bias'
p6861
sS'hundreth'
p6862
S'hundredth'
p6863
sS'roid'
p6864
S'road'
p6865
sS'admin'
p6866
S'administrator'
p6867
sS'coppin'
p6868
S'copping'
p6869
sS'numbah'
p6870
S'number'
p6871
sS'gowin'
p6872
S'going'
p6873
sS'tierd'
p6874
S'tired'
p6875
sS'thang'
p6876
S'thing'
p6877
sS'tlk'
p6878
S'talk'
p6879
sS'fakkk'
p6880
S'fuck'
p6881
sS'feeeeel'
p6882
S'feel'
p6883
sS'takinq'
p6884
S'taking'
p6885
sS'll'
p6886
S'will'
p6887
sS'yaself'
p6888
S'yourself'
p6889
sS'careee'
p6890
S'care'
p6891
sS'rvc'
p6892
S'revoke'
p6893
sS'gooood'
p6894
S'good'
p6895
sS'cn'
p6896
S'can'
p6897
sS'cl'
p6898
S'clear'
p6899
sS'gooooo'
p6900
S'go'
p6901
sS'makin'
p6902
S'making'
p6903
sS'growin'
p6904
S'growing'
p6905
sS'thatsx'
p6906
S'thats'
p6907
sS'gitu'
p6908
S'get'
p6909
sS'fukin'
p6910
S'fucking'
p6911
sS'uughh'
p6912
S'ugh'
p6913
sS'yesssssss'
p6914
S'yes'
p6915
sS'julliet'
p6916
S'juliet'
p6917
sS'swang'
p6918
S'swing'
p6919
sS'yuppp'
p6920
S'yes'
p6921
sS'soonn'
p6922
S'soon'
p6923
sS'fraca'
p6924
S'frock'
p6925
sS'yoooooh'
p6926
S'you'
p6927
sS'learnign'
p6928
S'learning'
p6929
sS'speakin'
p6930
S'speaking'
p6931
sS'rhere'
p6932
S'there'
p6933
sS'yas'
p6934
S'was'
p6935
sS'tellss'
p6936
S'tells'
p6937
sS'suposed'
p6938
S'supposed'
p6939
sS'willl'
p6940
S'will'
p6941
sS'bby'
p6942
S'baby'
p6943
sS'outlawz'
p6944
S'outlaws'
p6945
sS'bbs'
p6946
S'blackberries'
p6947
sS'bbq'
p6948
S'barbeque'
p6949
sS'thanx'
p6950
S'thanks'
p6951
sS'iiqht'
p6952
S'alright'
p6953
sS'facee'
p6954
S'face'
p6955
sS'wishh'
p6956
S'wish'
p6957
sS'myt'
p6958
S'might'
p6959
sS'koolaid'
p6960
S'cooled'
p6961
sS'practicals'
p6962
S'practical'
p6963
sS'infuze'
p6964
S'infuse'
p6965
sS'hme'
p6966
S'home'
p6967
sS'otr'
p6968
S'other'
p6969
sS'ots'
p6970
S'otherwise'
p6971
sS'tenso'
p6972
S'tense'
p6973
sS'ownd'
p6974
S'owned'
p6975
sS'pix'
p6976
S'pictures'
p6977
sS'nuttin'
p6978
S'nothing'
p6979
sS'ysm'
p6980
S'assume'
p6981
sS'replyinq'
p6982
S'replying'
p6983
sS'0kkay'
p6984
S'okay'
p6985
sS'homee'
p6986
S'home'
p6987
sS'fusking'
p6988
S'fucking'
p6989
sS'okayyy'
p6990
S'okay'
p6991
sS'industriel'
p6992
S'industrial'
p6993
sS'tings'
p6994
S'things'
p6995
sS'sith'
p6996
S'sixth'
p6997
sS'buckk'
p6998
S'buck'
p6999
sS'cuzin'
p7000
S'cousin'
p7001
sS'motorcickle'
p7002
S'motorcycle'
p7003
sS'inj'
p7004
S'injection'
p7005
sS'insanely'
p7006
S'instantly'
p7007
sS'schweet'
p7008
S'sweet'
p7009
sS'readin'
p7010
S'reading'
p7011
sS'avl'
p7012
S'available'
p7013
sS'dumbbb'
p7014
S'dumb'
p7015
sS'avo'
p7016
S'avoid'
p7017
sS'offically'
p7018
S'officially'
p7019
sS'wks'
p7020
S'weeks'
p7021
sS'avg'
p7022
S'average'
p7023
sS'pissin'
p7024
S'pissing'
p7025
sS'yayyyy'
p7026
S'way'
p7027
sS'menggila'
p7028
S'mingle'
p7029
sS'welcom'
p7030
S'welcome'
p7031
sS'getn'
p7032
S'getting'
p7033
sS'sekali'
p7034
S'scale'
p7035
sS'morrnin'
p7036
S'morning'
p7037
sS'doubtfull'
p7038
S'doubtful'
p7039
sS'getz'
p7040
S'get'
p7041
sS'paull'
p7042
S'paul'
p7043
sS'neeeed'
p7044
S'need'
p7045
sS'frndz'
p7046
S'friends'
p7047
sS'achivements'
p7048
S'achievements'
p7049
sS'noe'
p7050
S'know'
p7051
sS'pickin'
p7052
S'picking'
p7053
sS'frnds'
p7054
S'friends'
p7055
sS'crcl'
p7056
S'circle'
p7057
sS'yummmy'
p7058
S'yummy'
p7059
sS'yooo'
p7060
S'you'
p7061
sS'tld'
p7062
S'told'
p7063
sS'sadd'
p7064
S'sad'
p7065
sS'lookin'
p7066
S'looking'
p7067
sS'gudd'
p7068
S'good'
p7069
sS'disclosedt'
p7070
S'disclosed'
p7071
sS'definately'
p7072
S'definitely'
p7073
sS'addaction'
p7074
S'addiction'
p7075
sS'coffe'
p7076
S'coffee'
p7077
sS'dai'
p7078
S'day'
p7079
sS'craigs'
p7080
S"craig's"
p7081
sS'fucken'
p7082
S'fucking'
p7083
sS'notttt'
p7084
S'not'
p7085
sS'nethng'
p7086
S'nothing'
p7087
sS'novela'
p7088
S'novel'
p7089
sS'comaprison'
p7090
S'comparison'
p7091
sS'guesssss'
p7092
S'guess'
p7093
sS'collas'
p7094
S'collars'
p7095
sS'arse'
p7096
S'ass'
p7097
sS'frikin'
p7098
S'freaking'
p7099
sS'retir'
p7100
S'retire'
p7101
sS'phat'
p7102
S'fat'
p7103
sS'misin'
p7104
S'missing'
p7105
sS'initt'
p7106
S'into'
p7107
sS'coo'
p7108
S'cool'
p7109
sS'pyjama'
p7110
S'pajamas'
p7111
sS'choos'
p7112
S'choose'
p7113
sS'schl'
p7114
S'school'
p7115
sS'replyyyyyyyyyyyy'
p7116
S'reply'
p7117
sS'nik'
p7118
S'nick'
p7119
sS'collectin'
p7120
S'collecting'
p7121
sS'mfg'
p7122
S'manufacture'
p7123
sS'muchhh'
p7124
S'much'
p7125
sS'loveeeee'
p7126
S'love'
p7127
sS'collectie'
p7128
S'collective'
p7129
sS'camee'
p7130
S'came'
p7131
sS'xpensive'
p7132
S'expensive'
p7133
sS'catergory'
p7134
S'category'
p7135
sS'faaaadddd'
p7136
S'faded'
p7137
sS'riqht'
p7138
S'right'
p7139
sS'gansta'
p7140
S'gangster'
p7141
sS'aledi'
p7142
S'already'
p7143
sS'headin'
p7144
S'heading'
p7145
sS'hess'
p7146
S"he's"
p7147
sS'upgradin'
p7148
S'upgrading'
p7149
sS'needin'
p7150
S'needing'
p7151
sS'wea'
p7152
S'wear'
p7153
sS'quiero'
p7154
S'query'
p7155
sS'yeeaaahhhh'
p7156
S'yeah'
p7157
sS'hoppe'
p7158
S'hope'
p7159
sS'wel'
p7160
S'well'
p7161
sS'wer'
p7162
S'were'
p7163
sS'ska'
p7164
S'skate'
p7165
sS'humax'
p7166
S'human'
p7167
sS'gms'
p7168
S'games'
p7169
sS'skl'
p7170
S'school'
p7171
sS'practise'
p7172
S'practice'
p7173
sS'likel'
p7174
S'likely'
p7175
sS'cracc'
p7176
S'crack'
p7177
sS'5ay'
p7178
S'say'
p7179
sS'hollys'
p7180
S"holly's"
p7181
sS'goingg'
p7182
S'going'
p7183
sS'everthing'
p7184
S'everything'
p7185
sS'moble'
p7186
S'mobile'
p7187
sS'cuzo'
p7188
S'cousin'
p7189
sS'presc'
p7190
S'prescription'
p7191
sS'knoo'
p7192
S'know'
p7193
sS'prese'
p7194
S'presented'
p7195
sS'kkkk'
p7196
S'ok'
p7197
sS'yow'
p7198
S'your'
p7199
sS'thoooo'
p7200
S'though'
p7201
sS'fyt'
p7202
S'fit'
p7203
sS'commnication'
p7204
S'communication'
p7205
sS'dese'
p7206
S'these'
p7207
sS'hubbys'
p7208
S'husbands'
p7209
sS'wachin'
p7210
S'watching'
p7211
sS'msft'
p7212
S'microsoft'
p7213
sS'probally'
p7214
S'probably'
p7215
sS'hoiliday'
p7216
S'holiday'
p7217
sS'chics'
p7218
S'chicks'
p7219
sS'wondern'
p7220
S'wonder'
p7221
sS'workk'
p7222
S'work'
p7223
sS'ahem'
p7224
S'them'
p7225
sS'workn'
p7226
S'working'
p7227
sS'ahea'
p7228
S'ahead'
p7229
sS'wrkd'
p7230
S'worked'
p7231
sS'heey'
p7232
S'hey'
p7233
sS'starrer'
p7234
S'starred'
p7235
sS'mha'
p7236
S'my'
p7237
sS'worky'
p7238
S'work'
p7239
sS'losen'
p7240
S'loosen'
p7241
sS'alongggg'
p7242
S'along'
p7243
sS'sweeeet'
p7244
S'sweet'
p7245
sS'likw'
p7246
S'like'
p7247
sS'fuckkk'
p7248
S'fuck'
p7249
sS'shee'
p7250
S'she'
p7251
sS'dyingggg'
p7252
S'dying'
p7253
sS'cordevalle'
p7254
S'cordially'
p7255
sS'tumblr'
p7256
S'tumbler'
p7257
sS'shet'
p7258
S'shit'
p7259
sS'skewl'
p7260
S'school'
p7261
sS'qet'
p7262
S'get'
p7263
sS'psyc'
p7264
S'psych'
p7265
sS'freshh'
p7266
S'fresh'
p7267
sS'aniversary'
p7268
S'anniversary'
p7269
sS'riparte'
p7270
S'report'
p7271
sS'snuggly'
p7272
S'snugly'
p7273
sS'outragesly'
p7274
S'outrageously'
p7275
sS'tmr'
p7276
S'tomorrow'
p7277
sS'doee'
p7278
S'does'
p7279
sS'esp'
p7280
S'especially'
p7281
sS'showwing'
p7282
S'showing'
p7283
sS'portuagal'
p7284
S'portugal'
p7285
sS'mines'
p7286
S'mine'
p7287
sS'doen'
p7288
S'done'
p7289
sS'hoez'
p7290
S'hoes'
p7291
sS'monthss'
p7292
S'months'
p7293
sS'shiiiid'
p7294
S'shit'
p7295
sS'fanns'
p7296
S'fans'
p7297
sS'serius'
p7298
S'series'
p7299
sS'kiddo'
p7300
S'kid'
p7301
sS'likey'
p7302
S'likely'
p7303
sS'tk'
p7304
S'take'
p7305
sS'togetha'
p7306
S'together'
p7307
sS'tmo'
p7308
S'tomorrow'
p7309
sS'enuf'
p7310
S'enough'
p7311
sS'motiivation'
p7312
S'motivation'
p7313
sS'starvin'
p7314
S'starving'
p7315
sS'tatts'
p7316
S'tattoos'
p7317
sS'yeaah'
p7318
S'yeah'
p7319
sS'mits'
p7320
S'mitts'
p7321
sS'speacial'
p7322
S'special'
p7323
sS'admitte'
p7324
S'admitted'
p7325
sS'diid'
p7326
S'did'
p7327
sS'aitn'
p7328
S"hasn't"
p7329
sS'wknds'
p7330
S'weekends'
p7331
sS'hosp'
p7332
S'hospital'
p7333
sS'nuff'
p7334
S'enough'
p7335
sS'mite'
p7336
S'might'
p7337
sS'intrstd'
p7338
S'interested'
p7339
sS'aite'
p7340
S'alright'
p7341
sS'pikd'
p7342
S'picked'
p7343
sS'sakee'
p7344
S'sake'
p7345
sS'pt'
p7346
S'part'
p7347
sS'knowin'
p7348
S'knowing'
p7349
sS'tomr'
p7350
S'tomorrow'
p7351
sS'cannae'
p7352
S'cane'
p7353
sS'calln'
p7354
S'calling'
p7355
sS'naice'
p7356
S'nice'
p7357
sS'rarr'
p7358
S'rare'
p7359
sS'hier'
p7360
S'her'
p7361
sS'tomm'
p7362
S'tomorrow'
p7363
sS'tomo'
p7364
S'tomorrow'
p7365
sS'yeaaaaaaa'
p7366
S'yeah'
p7367
sS'nds'
p7368
S'needs'
p7369
sS'fri'
p7370
S'friday'
p7371
sS'anythigng'
p7372
S'anything'
p7373
sS'cuzzoz'
p7374
S"cousin's"
p7375
sS'h8'
p7376
S'hate'
p7377
sS'hwy'
p7378
S'highway'
p7379
sS'evryone'
p7380
S'everyone'
p7381
sS'assess'
p7382
S'asses'
p7383
sS'damnnn'
p7384
S'damn'
p7385
sS'doesnt'
p7386
S"doesn't"
p7387
sS'hiiii'
p7388
S'hi'
p7389
sS'couldnt'
p7390
S"couldn't"
p7391
sS'frs'
p7392
S'friends'
p7393
sS'meeee'
p7394
S'me'
p7395
sS'physc'
p7396
S'physical'
p7397
sS'woowww'
p7398
S'wow'
p7399
sS'appt'
p7400
S'appointment'
p7401
sS'vag'
p7402
S'vagina'
p7403
sS'pooo'
p7404
S'poop'
p7405
sS'pouts'
p7406
S'payouts'
p7407
sS'tryingg'
p7408
S'trying'
p7409
sS'fathir'
p7410
S'father'
p7411
sS'yrs'
p7412
S'years'
p7413
sS'svcs'
p7414
S'services'
p7415
sS'buz'
p7416
S'buzz'
p7417
sS'bitchez'
p7418
S'bitches'
p7419
sS'hr'
p7420
S'hour'
p7421
sS'nigth'
p7422
S'night'
p7423
sS'hv'
p7424
S'have'
p7425
sS'hw'
p7426
S'how'
p7427
sS'jerrys'
p7428
S"jerry's"
p7429
sS'yo'
p7430
S'you'
p7431
sS'buh'
p7432
S'but'
p7433
sS'nobodys'
p7434
S"nobody's"
p7435
sS'sumone'
p7436
S'someone'
p7437
sS'h0pin'
p7438
S'hoping'
p7439
sS'wiff'
p7440
S'with'
p7441
sS'sexi'
p7442
S'sexy'
p7443
sS'celly'
p7444
S'cell'
p7445
sS'coool'
p7446
S'cool'
p7447
sS'madd'
p7448
S'mad'
p7449
sS'2gether'
p7450
S'together'
p7451
sS'spijt'
p7452
S'spit'
p7453
sS'giiiirlss'
p7454
S'girls'
p7455
sS'arnt'
p7456
S"aren't"
p7457
sS'cellp'
p7458
S'cell'
p7459
sS'whatevs'
p7460
S'whatever'
p7461
sS'dmn'
p7462
S'domain'
p7463
sS'supa'
p7464
S'super'
p7465
sS'gassin'
p7466
S'gassing'
p7467
sS'arnd'
p7468
S'around'
p7469
sS'lvl'
p7470
S'level'
p7471
sS'whateva'
p7472
S'whatever'
p7473
sS'myy'
p7474
S'my'
p7475
sS'thnks'
p7476
S'thanks'
p7477
sS'againn'
p7478
S'again'
p7479
sS'iny'
p7480
S'in'
p7481
sS'layta'
p7482
S'late'
p7483
sS'stoopid'
p7484
S'stupid'
p7485
sS'int'
p7486
S'international'
p7487
sS'inv'
p7488
S'investment'
p7489
sS'pic'
p7490
S'picture'
p7491
sS'mcm'
p7492
S'mom'
p7493
sS'beatn'
p7494
S'beating'
p7495
sS'dupped'
p7496
S'dumped'
p7497
sS'inn'
p7498
S'in'
p7499
sS'spesial'
p7500
S'special'
p7501
sS'baaad'
p7502
S'bad'
p7503
sS'ind'
p7504
S'india'
p7505
sS'loa'
p7506
S'low'
p7507
sS"attend'g"
p7508
S'attending'
p7509
sS'beatz'
p7510
S'beats'
p7511
sS'mye'
p7512
S'my'
p7513
sS'aaalll'
p7514
S'all'
p7515
sS'booz'
p7516
S'booze'
p7517
sS'fukkkk'
p7518
S'fuck'
p7519
sS'sharin'
p7520
S'sharing'
p7521
sS'intellec'
p7522
S'intellect'
p7523
sS'd0in'
p7524
S'doing'
p7525
sS'wnts'
p7526
S'wants'
p7527
sS'th0'
p7528
S'though'
p7529
sS'messeage'
p7530
S'message'
p7531
sS'wheres'
p7532
S'whereas'
p7533
sS'talkin'
p7534
S'talking'
p7535
sS'hpe'
p7536
S'hope'
p7537
sS'estatic'
p7538
S'ecstatic'
p7539
sS'writting'
p7540
S'writing'
p7541
sS'cyyyn'
p7542
S'sun'
p7543
sS'in2'
p7544
S'into'
p7545
sS'humba'
p7546
S'hump'
p7547
sS'websitee'
p7548
S'website'
p7549
sS'plannin'
p7550
S'planning'
p7551
sS'sandwhich'
p7552
S'sandwich'
p7553
sS'recurrin'
p7554
S'recurring'
p7555
sS'preform'
p7556
S'perform'
p7557
sS'amazinngg'
p7558
S'amazing'
p7559
sS'deffo'
p7560
S'definitely'
p7561
sS'kickkin'
p7562
S'kicking'
p7563
sS'goin'
p7564
S'going'
p7565
sS'wiht'
p7566
S'with'
p7567
sS'nothinqq'
p7568
S'nothing'
p7569
sS'gooooood'
p7570
S'good'
p7571
sS'yeaaa'
p7572
S'yeah'
p7573
sS'tomoz'
p7574
S'tomorrow'
p7575
sS'bck'
p7576
S'back'
p7577
sS'bwoy'
p7578
S'boy'
p7579
sS'haterz'
p7580
S'haters'
p7581
sS'preggo'
p7582
S'pregnant'
p7583
sS'nyway'
p7584
S'anyway'
p7585
sS'samsunq'
p7586
S'samsung'
p7587
sS'srsly'
p7588
S'seriously'
p7589
sS'piikz'
p7590
S'picks'
p7591
sS'kevinn'
p7592
S'kevin'
p7593
sS'decemb'
p7594
S'december'
p7595
sS'comptoir'
p7596
S'computer'
p7597
sS'yummmmm'
p7598
S'yum'
p7599
sS'nooo'
p7600
S'no'
p7601
sS'visted'
p7602
S'visited'
p7603
s.